
./binaries/bin-out-obf.bin:     file format elf64-x86-64


Disassembly of section .init:

0000000000001000 <_init>:
    1000:	f3 0f 1e fa          	endbr64
    1004:	48 83 ec 08          	sub    $0x8,%rsp
    1008:	48 8b 05 c9 2f 00 00 	mov    0x2fc9(%rip),%rax        # 3fd8 <__gmon_start__@Base>
    100f:	48 85 c0             	test   %rax,%rax
    1012:	74 02                	je     1016 <_init+0x16>
    1014:	ff d0                	call   *%rax
    1016:	48 83 c4 08          	add    $0x8,%rsp
    101a:	c3                   	ret

Disassembly of section .plt:

0000000000001020 <printf@plt-0x10>:
    1020:	ff 35 ca 2f 00 00    	push   0x2fca(%rip)        # 3ff0 <_GLOBAL_OFFSET_TABLE_+0x8>
    1026:	ff 25 cc 2f 00 00    	jmp    *0x2fcc(%rip)        # 3ff8 <_GLOBAL_OFFSET_TABLE_+0x10>
    102c:	0f 1f 40 00          	nopl   0x0(%rax)

0000000000001030 <printf@plt>:
    1030:	ff 25 ca 2f 00 00    	jmp    *0x2fca(%rip)        # 4000 <printf@GLIBC_2.2.5>
    1036:	68 00 00 00 00       	push   $0x0
    103b:	e9 e0 ff ff ff       	jmp    1020 <_init+0x20>

Disassembly of section .plt.got:

0000000000001040 <__cxa_finalize@plt>:
    1040:	ff 25 7a 2f 00 00    	jmp    *0x2f7a(%rip)        # 3fc0 <__cxa_finalize@GLIBC_2.2.5>
    1046:	66 90                	xchg   %ax,%ax

Disassembly of section .text:

0000000000001050 <_start>:
    1050:	f3 0f 1e fa          	endbr64
    1054:	31 ed                	xor    %ebp,%ebp
    1056:	49 89 d1             	mov    %rdx,%r9
    1059:	5e                   	pop    %rsi
    105a:	48 89 e2             	mov    %rsp,%rdx
    105d:	48 83 e4 f0          	and    $0xfffffffffffffff0,%rsp
    1061:	50                   	push   %rax
    1062:	54                   	push   %rsp
    1063:	45 31 c0             	xor    %r8d,%r8d
    1066:	31 c9                	xor    %ecx,%ecx
    1068:	48 8d 3d b1 01 00 00 	lea    0x1b1(%rip),%rdi        # 1220 <main>
    106f:	ff 15 53 2f 00 00    	call   *0x2f53(%rip)        # 3fc8 <__libc_start_main@GLIBC_2.34>
    1075:	f4                   	hlt
    1076:	66 2e 0f 1f 84 00 00 	cs nopw 0x0(%rax,%rax,1)
    107d:	00 00 00 

0000000000001080 <deregister_tm_clones>:
    1080:	48 8d 3d 91 2f 00 00 	lea    0x2f91(%rip),%rdi        # 4018 <__TMC_END__>
    1087:	48 8d 05 8a 2f 00 00 	lea    0x2f8a(%rip),%rax        # 4018 <__TMC_END__>
    108e:	48 39 f8             	cmp    %rdi,%rax
    1091:	74 15                	je     10a8 <deregister_tm_clones+0x28>
    1093:	48 8b 05 36 2f 00 00 	mov    0x2f36(%rip),%rax        # 3fd0 <_ITM_deregisterTMCloneTable@Base>
    109a:	48 85 c0             	test   %rax,%rax
    109d:	74 09                	je     10a8 <deregister_tm_clones+0x28>
    109f:	ff e0                	jmp    *%rax
    10a1:	0f 1f 80 00 00 00 00 	nopl   0x0(%rax)
    10a8:	c3                   	ret
    10a9:	0f 1f 80 00 00 00 00 	nopl   0x0(%rax)

00000000000010b0 <register_tm_clones>:
    10b0:	48 8d 3d 61 2f 00 00 	lea    0x2f61(%rip),%rdi        # 4018 <__TMC_END__>
    10b7:	48 8d 35 5a 2f 00 00 	lea    0x2f5a(%rip),%rsi        # 4018 <__TMC_END__>
    10be:	48 29 fe             	sub    %rdi,%rsi
    10c1:	48 89 f0             	mov    %rsi,%rax
    10c4:	48 c1 ee 3f          	shr    $0x3f,%rsi
    10c8:	48 c1 f8 03          	sar    $0x3,%rax
    10cc:	48 01 c6             	add    %rax,%rsi
    10cf:	48 d1 fe             	sar    $1,%rsi
    10d2:	74 14                	je     10e8 <register_tm_clones+0x38>
    10d4:	48 8b 05 05 2f 00 00 	mov    0x2f05(%rip),%rax        # 3fe0 <_ITM_registerTMCloneTable@Base>
    10db:	48 85 c0             	test   %rax,%rax
    10de:	74 08                	je     10e8 <register_tm_clones+0x38>
    10e0:	ff e0                	jmp    *%rax
    10e2:	66 0f 1f 44 00 00    	nopw   0x0(%rax,%rax,1)
    10e8:	c3                   	ret
    10e9:	0f 1f 80 00 00 00 00 	nopl   0x0(%rax)

00000000000010f0 <__do_global_dtors_aux>:
    10f0:	f3 0f 1e fa          	endbr64
    10f4:	80 3d 1d 2f 00 00 00 	cmpb   $0x0,0x2f1d(%rip)        # 4018 <__TMC_END__>
    10fb:	75 2b                	jne    1128 <__do_global_dtors_aux+0x38>
    10fd:	55                   	push   %rbp
    10fe:	48 83 3d ba 2e 00 00 	cmpq   $0x0,0x2eba(%rip)        # 3fc0 <__cxa_finalize@GLIBC_2.2.5>
    1105:	00 
    1106:	48 89 e5             	mov    %rsp,%rbp
    1109:	74 0c                	je     1117 <__do_global_dtors_aux+0x27>
    110b:	48 8b 3d fe 2e 00 00 	mov    0x2efe(%rip),%rdi        # 4010 <__dso_handle>
    1112:	e8 29 ff ff ff       	call   1040 <__cxa_finalize@plt>
    1117:	e8 64 ff ff ff       	call   1080 <deregister_tm_clones>
    111c:	c6 05 f5 2e 00 00 01 	movb   $0x1,0x2ef5(%rip)        # 4018 <__TMC_END__>
    1123:	5d                   	pop    %rbp
    1124:	c3                   	ret
    1125:	0f 1f 00             	nopl   (%rax)
    1128:	c3                   	ret
    1129:	0f 1f 80 00 00 00 00 	nopl   0x0(%rax)

0000000000001130 <frame_dummy>:
    1130:	f3 0f 1e fa          	endbr64
    1134:	e9 77 ff ff ff       	jmp    10b0 <register_tm_clones>
    1139:	0f 1f 80 00 00 00 00 	nopl   0x0(%rax)

0000000000001140 <_Z11str_printerv>:
    1140:	55                   	push   %rbp
    1141:	48 89 e5             	mov    %rsp,%rbp
    1144:	b8 00 00 fe 7f       	mov    $0x7ffe0000,%eax
    1149:	8b 00                	mov    (%rax),%eax
    114b:	c1 e8 08             	shr    $0x8,%eax
    114e:	25 ff 00 00 00       	and    $0xff,%eax
    1153:	05 00 00 10 00       	add    $0x100000,%eax
    1158:	be 22 89 8d fd       	mov    $0xfd8d8922,%esi
    115d:	29 c6                	sub    %eax,%esi
    115f:	b8 00 00 fe 7f       	mov    $0x7ffe0000,%eax
    1164:	8b 00                	mov    (%rax),%eax
    1166:	c1 e8 08             	shr    $0x8,%eax
    1169:	25 ff 00 00 00       	and    $0xff,%eax
    116e:	05 ff ff ff 00       	add    $0xffffff,%eax
    1173:	69 c0 5a 64 88 6e    	imul   $0x6e88645a,%eax,%eax
    1179:	89 c1                	mov    %eax,%ecx
    117b:	89 f2                	mov    %esi,%edx
    117d:	d3 e2                	shl    %cl,%edx
    117f:	09 f0                	or     %esi,%eax
    1181:	89 d1                	mov    %edx,%ecx
    1183:	d3 e0                	shl    %cl,%eax
    1185:	83 f2 ff             	xor    $0xffffffff,%edx
    1188:	89 c6                	mov    %eax,%esi
    118a:	0f af f2             	imul   %edx,%esi
    118d:	89 c1                	mov    %eax,%ecx
    118f:	d3 e2                	shl    %cl,%edx
    1191:	09 d6                	or     %edx,%esi
    1193:	81 c6 fc cf 91 ff    	add    $0xff91cffc,%esi
    1199:	89 f0                	mov    %esi,%eax
    119b:	48 8d 3d 62 0e 00 00 	lea    0xe62(%rip),%rdi        # 2004 <_IO_stdin_used+0x4>
    11a2:	48 81 c7 47 34 12 00 	add    $0x123447,%rdi
    11a9:	48 83 c7 0f          	add    $0xf,%rdi
    11ad:	48 29 c7             	sub    %rax,%rdi
    11b0:	b0 00                	mov    $0x0,%al
    11b2:	e8 79 fe ff ff       	call   1030 <printf@plt>
    11b7:	b8 00 00 fe 7f       	mov    $0x7ffe0000,%eax
    11bc:	8b 00                	mov    (%rax),%eax
    11be:	c1 e8 08             	shr    $0x8,%eax
    11c1:	25 ff 00 00 00       	and    $0xff,%eax
    11c6:	05 00 00 10 00       	add    $0x100000,%eax
    11cb:	05 46 d2 aa 1c       	add    $0x1caad246,%eax
    11d0:	b9 00 00 fe 7f       	mov    $0x7ffe0000,%ecx
    11d5:	8b 09                	mov    (%rcx),%ecx
    11d7:	c1 e9 08             	shr    $0x8,%ecx
    11da:	81 e1 ff 00 00 00    	and    $0xff,%ecx
    11e0:	81 c1 ff ff ff 00    	add    $0xffffff,%ecx
    11e6:	ba e4 e3 70 8b       	mov    $0x8b70e3e4,%edx
    11eb:	d3 e2                	shl    %cl,%edx
    11ed:	89 d1                	mov    %edx,%ecx
    11ef:	d3 e0                	shl    %cl,%eax
    11f1:	31 d2                	xor    %edx,%edx
    11f3:	29 c2                	sub    %eax,%edx
    11f5:	83 e8 00             	sub    $0x0,%eax
    11f8:	89 d6                	mov    %edx,%esi
    11fa:	31 c6                	xor    %eax,%esi
    11fc:	89 c1                	mov    %eax,%ecx
    11fe:	d3 e2                	shl    %cl,%edx
    1200:	01 f2                	add    %esi,%edx
    1202:	81 c2 da c5 c6 2e    	add    $0x2ec6c5da,%edx
    1208:	89 d1                	mov    %edx,%ecx
    120a:	48 8d 05 10 0e 00 00 	lea    0xe10(%rip),%rax        # 2021 <_IO_stdin_used+0x21>
    1211:	48 05 4c 34 12 00    	add    $0x12344c,%rax
    1217:	48 83 c0 0a          	add    $0xa,%rax
    121b:	48 29 c8             	sub    %rcx,%rax
    121e:	5d                   	pop    %rbp
    121f:	c3                   	ret

0000000000001220 <main>:
    1220:	55                   	push   %rbp
    1221:	48 89 e5             	mov    %rsp,%rbp
    1224:	48 83 ec 50          	sub    $0x50,%rsp
    1228:	c7 45 b8 2c 01 00 00 	movl   $0x12c,-0x48(%rbp)
    122f:	b8 00 00 fe 7f       	mov    $0x7ffe0000,%eax
    1234:	8b 00                	mov    (%rax),%eax
    1236:	c1 e8 08             	shr    $0x8,%eax
    1239:	25 ff 00 00 00       	and    $0xff,%eax
    123e:	89 c1                	mov    %eax,%ecx
    1240:	48 b8 64 cc 4d 84 25 	movabs $0x36f13f25844dcc64,%rax
    1247:	3f f1 36 
    124a:	48 01 c1             	add    %rax,%rcx
    124d:	48 be bc 64 49 10 4f 	movabs $0xce5bea4f104964bc,%rsi
    1254:	ea 5b ce 
    1257:	48 d3 e6             	shl    %cl,%rsi
    125a:	b8 00 00 fe 7f       	mov    $0x7ffe0000,%eax
    125f:	8b 00                	mov    (%rax),%eax
    1261:	c1 e8 08             	shr    $0x8,%eax
    1264:	25 ff 00 00 00       	and    $0xff,%eax
    1269:	89 c1                	mov    %eax,%ecx
    126b:	48 b8 75 09 60 7d cd 	movabs $0x1d42d0cd7d600975,%rax
    1272:	d0 42 1d 
    1275:	48 01 c1             	add    %rax,%rcx
    1278:	48 b8 d8 c0 a3 30 78 	movabs $0xf73c757830a3c0d8,%rax
    127f:	75 3c f7 
    1282:	48 d3 e0             	shl    %cl,%rax
    1285:	48 89 c7             	mov    %rax,%rdi
    1288:	48 31 f7             	xor    %rsi,%rdi
    128b:	48 89 f2             	mov    %rsi,%rdx
    128e:	48 31 c2             	xor    %rax,%rdx
    1291:	48 01 c6             	add    %rax,%rsi
    1294:	48 89 f8             	mov    %rdi,%rax
    1297:	48 83 f0 ff          	xor    $0xffffffffffffffff,%rax
    129b:	48 89 d1             	mov    %rdx,%rcx
    129e:	48 d3 ef             	shr    %cl,%rdi
    12a1:	48 09 d6             	or     %rdx,%rsi
    12a4:	49 89 c0             	mov    %rax,%r8
    12a7:	49 09 f8             	or     %rdi,%r8
    12aa:	48 89 c1             	mov    %rax,%rcx
    12ad:	48 89 f2             	mov    %rsi,%rdx
    12b0:	48 d3 ea             	shr    %cl,%rdx
    12b3:	48 0f af c6          	imul   %rsi,%rax
    12b7:	48 89 d1             	mov    %rdx,%rcx
    12ba:	4c 89 c6             	mov    %r8,%rsi
    12bd:	48 d3 ee             	shr    %cl,%rsi
    12c0:	48 89 d1             	mov    %rdx,%rcx
    12c3:	49 d3 e8             	shr    %cl,%r8
    12c6:	48 01 d0             	add    %rdx,%rax
    12c9:	48 83 f6 ff          	xor    $0xffffffffffffffff,%rsi
    12cd:	48 89 c7             	mov    %rax,%rdi
    12d0:	4c 09 c7             	or     %r8,%rdi
    12d3:	48 83 f0 ff          	xor    $0xffffffffffffffff,%rax
    12d7:	48 31 f0             	xor    %rsi,%rax
    12da:	48 89 f2             	mov    %rsi,%rdx
    12dd:	48 0f af d7          	imul   %rdi,%rdx
    12e1:	48 01 f7             	add    %rsi,%rdi
    12e4:	48 89 fe             	mov    %rdi,%rsi
    12e7:	48 29 c6             	sub    %rax,%rsi
    12ea:	48 89 d1             	mov    %rdx,%rcx
    12ed:	48 d3 e7             	shl    %cl,%rdi
    12f0:	48 01 d0             	add    %rdx,%rax
    12f3:	48 89 f1             	mov    %rsi,%rcx
    12f6:	49 89 c0             	mov    %rax,%r8
    12f9:	49 d3 e0             	shl    %cl,%r8
    12fc:	48 83 f0 ff          	xor    $0xffffffffffffffff,%rax
    1300:	48 09 fe             	or     %rdi,%rsi
    1303:	48 89 f2             	mov    %rsi,%rdx
    1306:	4c 29 c2             	sub    %r8,%rdx
    1309:	48 89 f1             	mov    %rsi,%rcx
    130c:	4c 89 c6             	mov    %r8,%rsi
    130f:	48 d3 ee             	shr    %cl,%rsi
    1312:	48 89 c1             	mov    %rax,%rcx
    1315:	49 d3 e8             	shr    %cl,%r8
    1318:	49 0f af d0          	imul   %r8,%rdx
    131c:	48 89 f1             	mov    %rsi,%rcx
    131f:	4c 89 c7             	mov    %r8,%rdi
    1322:	48 d3 ef             	shr    %cl,%rdi
    1325:	49 0f af f0          	imul   %r8,%rsi
    1329:	48 89 f0             	mov    %rsi,%rax
    132c:	48 09 d0             	or     %rdx,%rax
    132f:	48 89 f1             	mov    %rsi,%rcx
    1332:	48 89 d6             	mov    %rdx,%rsi
    1335:	48 d3 e6             	shl    %cl,%rsi
    1338:	48 89 d1             	mov    %rdx,%rcx
    133b:	48 d3 e7             	shl    %cl,%rdi
    133e:	48 83 f7 ff          	xor    $0xffffffffffffffff,%rdi
    1342:	49 89 f0             	mov    %rsi,%r8
    1345:	49 09 c0             	or     %rax,%r8
    1348:	48 09 f0             	or     %rsi,%rax
    134b:	4c 89 c2             	mov    %r8,%rdx
    134e:	48 09 fa             	or     %rdi,%rdx
    1351:	48 89 f9             	mov    %rdi,%rcx
    1354:	4c 89 c6             	mov    %r8,%rsi
    1357:	48 d3 ee             	shr    %cl,%rsi
    135a:	4c 09 c0             	or     %r8,%rax
    135d:	48 89 f7             	mov    %rsi,%rdi
    1360:	48 09 c7             	or     %rax,%rdi
    1363:	48 01 f0             	add    %rsi,%rax
    1366:	48 89 f1             	mov    %rsi,%rcx
    1369:	48 d3 e2             	shl    %cl,%rdx
    136c:	48 89 d1             	mov    %rdx,%rcx
    136f:	48 d3 ef             	shr    %cl,%rdi
    1372:	48 31 d0             	xor    %rdx,%rax
    1375:	48 89 fa             	mov    %rdi,%rdx
    1378:	48 01 c2             	add    %rax,%rdx
    137b:	48 89 f9             	mov    %rdi,%rcx
    137e:	48 29 c1             	sub    %rax,%rcx
    1381:	48 0f af c7          	imul   %rdi,%rax
    1385:	48 09 ca             	or     %rcx,%rdx
    1388:	48 0f af c1          	imul   %rcx,%rax
    138c:	48 89 d1             	mov    %rdx,%rcx
    138f:	48 89 c6             	mov    %rax,%rsi
    1392:	48 d3 e6             	shl    %cl,%rsi
    1395:	48 31 d0             	xor    %rdx,%rax
    1398:	48 89 c1             	mov    %rax,%rcx
    139b:	48 89 f2             	mov    %rsi,%rdx
    139e:	48 d3 ea             	shr    %cl,%rdx
    13a1:	48 89 f1             	mov    %rsi,%rcx
    13a4:	48 09 c1             	or     %rax,%rcx
    13a7:	48 09 c6             	or     %rax,%rsi
    13aa:	48 89 d7             	mov    %rdx,%rdi
    13ad:	48 29 cf             	sub    %rcx,%rdi
    13b0:	49 89 d0             	mov    %rdx,%r8
    13b3:	49 31 f0             	xor    %rsi,%r8
    13b6:	48 0f af d1          	imul   %rcx,%rdx
    13ba:	48 89 f8             	mov    %rdi,%rax
    13bd:	49 0f af c0          	imul   %r8,%rax
    13c1:	4c 89 c1             	mov    %r8,%rcx
    13c4:	48 0f af ca          	imul   %rdx,%rcx
    13c8:	4c 01 c7             	add    %r8,%rdi
    13cb:	48 89 fa             	mov    %rdi,%rdx
    13ce:	48 29 c2             	sub    %rax,%rdx
    13d1:	48 09 c8             	or     %rcx,%rax
    13d4:	48 29 f9             	sub    %rdi,%rcx
    13d7:	48 89 d7             	mov    %rdx,%rdi
    13da:	48 83 f7 ff          	xor    $0xffffffffffffffff,%rdi
    13de:	48 0f af c2          	imul   %rdx,%rax
    13e2:	48 d3 e2             	shl    %cl,%rdx
    13e5:	49 89 c0             	mov    %rax,%r8
    13e8:	4c 0f af c2          	imul   %rdx,%r8
    13ec:	48 89 c1             	mov    %rax,%rcx
    13ef:	48 d3 e2             	shl    %cl,%rdx
    13f2:	48 29 c7             	sub    %rax,%rdi
    13f5:	48 89 d6             	mov    %rdx,%rsi
    13f8:	48 83 f6 ff          	xor    $0xffffffffffffffff,%rsi
    13fc:	48 89 d1             	mov    %rdx,%rcx
    13ff:	48 89 f8             	mov    %rdi,%rax
    1402:	48 d3 e0             	shl    %cl,%rax
    1405:	49 09 f8             	or     %rdi,%r8
    1408:	48 89 c2             	mov    %rax,%rdx
    140b:	48 83 f2 ff          	xor    $0xffffffffffffffff,%rdx
    140f:	48 89 f1             	mov    %rsi,%rcx
    1412:	48 d3 e0             	shl    %cl,%rax
    1415:	49 0f af f0          	imul   %r8,%rsi
    1419:	48 09 d0             	or     %rdx,%rax
    141c:	48 89 f1             	mov    %rsi,%rcx
    141f:	48 d3 ea             	shr    %cl,%rdx
    1422:	48 89 c1             	mov    %rax,%rcx
    1425:	48 89 d6             	mov    %rdx,%rsi
    1428:	48 d3 e6             	shl    %cl,%rsi
    142b:	48 89 d1             	mov    %rdx,%rcx
    142e:	48 d3 e0             	shl    %cl,%rax
    1431:	48 89 f1             	mov    %rsi,%rcx
    1434:	48 d3 e8             	shr    %cl,%rax
    1437:	48 b9 77 61 72 65 76 	movabs $0xef73697665726177,%rcx
    143e:	69 73 ef 
    1441:	48 31 c8             	xor    %rcx,%rax
    1444:	48 89 45 eb          	mov    %rax,-0x15(%rbp)
    1448:	b8 00 00 fe 7f       	mov    $0x7ffe0000,%eax
    144d:	8b 00                	mov    (%rax),%eax
    144f:	c1 e8 08             	shr    $0x8,%eax
    1452:	25 ff 00 00 00       	and    $0xff,%eax
    1457:	05 2f 9c 00 00       	add    $0x9c2f,%eax
    145c:	66 0d ab 6e          	or     $0x6eab,%ax
    1460:	b9 00 00 fe 7f       	mov    $0x7ffe0000,%ecx
    1465:	8b 09                	mov    (%rcx),%ecx
    1467:	c1 e9 08             	shr    $0x8,%ecx
    146a:	81 e1 ff 00 00 00    	and    $0xff,%ecx
    1470:	81 c1 4f a0 00 00    	add    $0xa04f,%ecx
    1476:	66 81 f1 c0 e4       	xor    $0xe4c0,%cx
    147b:	31 f6                	xor    %esi,%esi
    147d:	66 29 c6             	sub    %ax,%si
    1480:	66 83 f1 00          	xor    $0x0,%cx
    1484:	66 09 ce             	or     %cx,%si
    1487:	66 c1 ee 00          	shr    $0x0,%si
    148b:	66 89 f0             	mov    %si,%ax
    148e:	66 83 f0 ff          	xor    $0xffff,%ax
    1492:	31 d2                	xor    %edx,%edx
    1494:	66 29 f2             	sub    %si,%dx
    1497:	66 89 c1             	mov    %ax,%cx
    149a:	66 89 d6             	mov    %dx,%si
    149d:	66 d3 e6             	shl    %cl,%si
    14a0:	66 01 c2             	add    %ax,%dx
    14a3:	66 89 f0             	mov    %si,%ax
    14a6:	66 09 d0             	or     %dx,%ax
    14a9:	66 31 f2             	xor    %si,%dx
    14ac:	66 89 d6             	mov    %dx,%si
    14af:	66 83 ce 00          	or     $0x0,%si
    14b3:	66 0f af d0          	imul   %ax,%dx
    14b7:	66 89 d1             	mov    %dx,%cx
    14ba:	66 89 f7             	mov    %si,%di
    14bd:	66 d3 e7             	shl    %cl,%di
    14c0:	66 31 d6             	xor    %dx,%si
    14c3:	66 89 f1             	mov    %si,%cx
    14c6:	66 89 f8             	mov    %di,%ax
    14c9:	66 d3 e8             	shr    %cl,%ax
    14cc:	66 31 f7             	xor    %si,%di
    14cf:	66 89 c2             	mov    %ax,%dx
    14d2:	66 83 f2 ff          	xor    $0xffff,%dx
    14d6:	66 89 fe             	mov    %di,%si
    14d9:	66 0f af f0          	imul   %ax,%si
    14dd:	66 31 f8             	xor    %di,%ax
    14e0:	66 89 d1             	mov    %dx,%cx
    14e3:	66 89 f7             	mov    %si,%di
    14e6:	66 d3 e7             	shl    %cl,%di
    14e9:	66 09 f2             	or     %si,%dx
    14ec:	66 89 f1             	mov    %si,%cx
    14ef:	66 d3 e8             	shr    %cl,%ax
    14f2:	66 89 fe             	mov    %di,%si
    14f5:	66 01 c6             	add    %ax,%si
    14f8:	66 31 f8             	xor    %di,%ax
    14fb:	66 31 fa             	xor    %di,%dx
    14fe:	66 89 c1             	mov    %ax,%cx
    1501:	66 d3 ea             	shr    %cl,%dx
    1504:	66 31 f0             	xor    %si,%ax
    1507:	66 89 c1             	mov    %ax,%cx
    150a:	66 29 d1             	sub    %dx,%cx
    150d:	66 31 d0             	xor    %dx,%ax
    1510:	66 89 c2             	mov    %ax,%dx
    1513:	66 0f af d1          	imul   %cx,%dx
    1517:	66 89 c6             	mov    %ax,%si
    151a:	66 83 f6 ff          	xor    $0xffff,%si
    151e:	66 09 c1             	or     %ax,%cx
    1521:	66 89 c8             	mov    %cx,%ax
    1524:	66 29 d0             	sub    %dx,%ax
    1527:	66 89 f7             	mov    %si,%di
    152a:	66 09 cf             	or     %cx,%di
    152d:	66 0f af ce          	imul   %si,%cx
    1531:	66 29 cf             	sub    %cx,%di
    1534:	66 89 ca             	mov    %cx,%dx
    1537:	66 01 c2             	add    %ax,%dx
    153a:	66 01 c1             	add    %ax,%cx
    153d:	66 41 89 d0          	mov    %dx,%r8w
    1541:	66 41 83 f0 ff       	xor    $0xffff,%r8w
    1546:	66 09 d1             	or     %dx,%cx
    1549:	66 83 f7 ff          	xor    $0xffff,%di
    154d:	66 44 89 c0          	mov    %r8w,%ax
    1551:	66 01 c8             	add    %cx,%ax
    1554:	66 89 fa             	mov    %di,%dx
    1557:	66 44 29 c2          	sub    %r8w,%dx
    155b:	66 41 29 f8          	sub    %di,%r8w
    155f:	66 89 d1             	mov    %dx,%cx
    1562:	66 89 c6             	mov    %ax,%si
    1565:	66 d3 e6             	shl    %cl,%si
    1568:	66 89 d1             	mov    %dx,%cx
    156b:	66 89 c2             	mov    %ax,%dx
    156e:	66 d3 e2             	shl    %cl,%dx
    1571:	66 44 01 c0          	add    %r8w,%ax
    1575:	66 89 c1             	mov    %ax,%cx
    1578:	66 89 f7             	mov    %si,%di
    157b:	66 d3 ef             	shr    %cl,%di
    157e:	66 89 c1             	mov    %ax,%cx
    1581:	66 d3 e6             	shl    %cl,%si
    1584:	66 89 c1             	mov    %ax,%cx
    1587:	66 d3 ea             	shr    %cl,%dx
    158a:	66 89 f9             	mov    %di,%cx
    158d:	66 29 d1             	sub    %dx,%cx
    1590:	66 01 d7             	add    %dx,%di
    1593:	66 83 f6 ff          	xor    $0xffff,%si
    1597:	66 0f af f7          	imul   %di,%si
    159b:	66 31 f9             	xor    %di,%cx
    159e:	66 89 f2             	mov    %si,%dx
    15a1:	66 01 ca             	add    %cx,%dx
    15a4:	66 0f af ce          	imul   %si,%cx
    15a8:	66 89 c8             	mov    %cx,%ax
    15ab:	66 83 f0 ff          	xor    $0xffff,%ax
    15af:	66 89 ce             	mov    %cx,%si
    15b2:	66 0f af f2          	imul   %dx,%si
    15b6:	66 83 f1 ff          	xor    $0xffff,%cx
    15ba:	66 31 c6             	xor    %ax,%si
    15bd:	66 d3 e8             	shr    %cl,%ax
    15c0:	66 89 f2             	mov    %si,%dx
    15c3:	66 31 c2             	xor    %ax,%dx
    15c6:	66 89 c1             	mov    %ax,%cx
    15c9:	66 d3 e6             	shl    %cl,%si
    15cc:	66 89 d1             	mov    %dx,%cx
    15cf:	66 89 f0             	mov    %si,%ax
    15d2:	66 d3 e8             	shr    %cl,%ax
    15d5:	66 29 f2             	sub    %si,%dx
    15d8:	66 01 d0             	add    %dx,%ax
    15db:	66 83 f0 72          	xor    $0x72,%ax
    15df:	66 89 45 f3          	mov    %ax,-0xd(%rbp)
    15e3:	48 8d 45 eb          	lea    -0x15(%rbp),%rax
    15e7:	48 89 45 c0          	mov    %rax,-0x40(%rbp)
    15eb:	c7 45 c8 90 5f 01 00 	movl   $0x15f90,-0x38(%rbp)
    15f2:	b8 00 00 fe 7f       	mov    $0x7ffe0000,%eax
    15f7:	8b 00                	mov    (%rax),%eax
    15f9:	c1 e8 08             	shr    $0x8,%eax
    15fc:	25 ff 00 00 00       	and    $0xff,%eax
    1601:	89 c0                	mov    %eax,%eax
    1603:	48 b9 03 cc a6 8d 1d 	movabs $0x77eee31d8da6cc03,%rcx
    160a:	e3 ee 77 
    160d:	48 01 c8             	add    %rcx,%rax
    1610:	48 b9 54 f3 a1 7e a7 	movabs $0xbb8b3fa77ea1f354,%rcx
    1617:	3f 8b bb 
    161a:	48 01 c8             	add    %rcx,%rax
    161d:	b9 00 00 fe 7f       	mov    $0x7ffe0000,%ecx
    1622:	8b 09                	mov    (%rcx),%ecx
    1624:	c1 e9 08             	shr    $0x8,%ecx
    1627:	81 e1 ff 00 00 00    	and    $0xff,%ecx
    162d:	89 c9                	mov    %ecx,%ecx
    162f:	48 ba fb b1 8d f3 f6 	movabs $0x3a77f1f6f38db1fb,%rdx
    1636:	f1 77 3a 
    1639:	48 01 d1             	add    %rdx,%rcx
    163c:	48 ba 7d 8d 51 8f a0 	movabs $0xb489d0a08f518d7d,%rdx
    1643:	d0 89 b4 
    1646:	48 01 d1             	add    %rdx,%rcx
    1649:	ba 00 00 fe 7f       	mov    $0x7ffe0000,%edx
    164e:	8b 12                	mov    (%rdx),%edx
    1650:	c1 ea 08             	shr    $0x8,%edx
    1653:	81 e2 ff 00 00 00    	and    $0xff,%edx
    1659:	89 d2                	mov    %edx,%edx
    165b:	48 be 9f 26 14 54 93 	movabs $0x50f99f935414269f,%rsi
    1662:	9f f9 50 
    1665:	48 01 f2             	add    %rsi,%rdx
    1668:	48 be 33 55 4c e0 5c 	movabs $0xba9af95ce04c5533,%rsi
    166f:	f9 9a ba 
    1672:	48 09 f2             	or     %rsi,%rdx
    1675:	48 89 ce             	mov    %rcx,%rsi
    1678:	48 09 d6             	or     %rdx,%rsi
    167b:	48 89 d7             	mov    %rdx,%rdi
    167e:	48 31 c7             	xor    %rax,%rdi
    1681:	48 29 d1             	sub    %rdx,%rcx
    1684:	48 31 ce             	xor    %rcx,%rsi
    1687:	48 89 ca             	mov    %rcx,%rdx
    168a:	48 01 fa             	add    %rdi,%rdx
    168d:	48 09 cf             	or     %rcx,%rdi
    1690:	48 89 f8             	mov    %rdi,%rax
    1693:	48 83 f0 ff          	xor    $0xffffffffffffffff,%rax
    1697:	48 89 f9             	mov    %rdi,%rcx
    169a:	48 09 f1             	or     %rsi,%rcx
    169d:	48 01 fa             	add    %rdi,%rdx
    16a0:	48 89 c6             	mov    %rax,%rsi
    16a3:	48 29 d6             	sub    %rdx,%rsi
    16a6:	48 d3 e0             	shl    %cl,%rax
    16a9:	48 01 f0             	add    %rsi,%rax
    16ac:	48 c1 e0 00          	shl    $0x0,%rax
    16b0:	48 89 c7             	mov    %rax,%rdi
    16b3:	48 83 ef 00          	sub    $0x0,%rdi
    16b7:	48 83 c8 00          	or     $0x0,%rax
    16bb:	48 83 f7 00          	xor    $0x0,%rdi
    16bf:	48 83 f0 00          	xor    $0x0,%rax
    16c3:	48 89 c1             	mov    %rax,%rcx
    16c6:	48 89 fa             	mov    %rdi,%rdx
    16c9:	48 d3 ea             	shr    %cl,%rdx
    16cc:	48 89 c6             	mov    %rax,%rsi
    16cf:	48 31 fe             	xor    %rdi,%rsi
    16d2:	48 09 f8             	or     %rdi,%rax
    16d5:	48 89 d1             	mov    %rdx,%rcx
    16d8:	48 89 c2             	mov    %rax,%rdx
    16db:	48 d3 e2             	shl    %cl,%rdx
    16de:	48 89 c7             	mov    %rax,%rdi
    16e1:	48 09 f7             	or     %rsi,%rdi
    16e4:	48 09 c6             	or     %rax,%rsi
    16e7:	48 89 f1             	mov    %rsi,%rcx
    16ea:	49 89 d0             	mov    %rdx,%r8
    16ed:	49 d3 e0             	shl    %cl,%r8
    16f0:	48 89 d0             	mov    %rdx,%rax
    16f3:	48 29 f8             	sub    %rdi,%rax
    16f6:	48 09 d6             	or     %rdx,%rsi
    16f9:	48 89 c7             	mov    %rax,%rdi
    16fc:	4c 01 c7             	add    %r8,%rdi
    16ff:	48 89 f1             	mov    %rsi,%rcx
    1702:	48 89 c2             	mov    %rax,%rdx
    1705:	48 d3 ea             	shr    %cl,%rdx
    1708:	4c 29 c0             	sub    %r8,%rax
    170b:	48 89 d6             	mov    %rdx,%rsi
    170e:	48 83 f6 ff          	xor    $0xffffffffffffffff,%rsi
    1712:	48 89 d1             	mov    %rdx,%rcx
    1715:	48 89 c2             	mov    %rax,%rdx
    1718:	48 d3 ea             	shr    %cl,%rdx
    171b:	48 0f af c7          	imul   %rdi,%rax
    171f:	48 29 d6             	sub    %rdx,%rsi
    1722:	48 89 d1             	mov    %rdx,%rcx
    1725:	48 d3 e8             	shr    %cl,%rax
    1728:	48 89 c1             	mov    %rax,%rcx
    172b:	48 89 f7             	mov    %rsi,%rdi
    172e:	48 d3 ef             	shr    %cl,%rdi
    1731:	48 89 c1             	mov    %rax,%rcx
    1734:	48 89 f2             	mov    %rsi,%rdx
    1737:	48 d3 e2             	shl    %cl,%rdx
    173a:	48 29 f0             	sub    %rsi,%rax
    173d:	48 29 f8             	sub    %rdi,%rax
    1740:	48 89 fe             	mov    %rdi,%rsi
    1743:	48 01 d6             	add    %rdx,%rsi
    1746:	48 89 d1             	mov    %rdx,%rcx
    1749:	48 d3 e7             	shl    %cl,%rdi
    174c:	48 89 f1             	mov    %rsi,%rcx
    174f:	48 09 c1             	or     %rax,%rcx
    1752:	48 29 f7             	sub    %rsi,%rdi
    1755:	48 31 c6             	xor    %rax,%rsi
    1758:	48 89 f0             	mov    %rsi,%rax
    175b:	48 09 c8             	or     %rcx,%rax
    175e:	48 89 fa             	mov    %rdi,%rdx
    1761:	48 29 f2             	sub    %rsi,%rdx
    1764:	48 d3 ef             	shr    %cl,%rdi
    1767:	49 89 f8             	mov    %rdi,%r8
    176a:	49 29 c0             	sub    %rax,%r8
    176d:	48 09 d7             	or     %rdx,%rdi
    1770:	48 89 c1             	mov    %rax,%rcx
    1773:	48 d3 ea             	shr    %cl,%rdx
    1776:	48 89 d0             	mov    %rdx,%rax
    1779:	48 29 f8             	sub    %rdi,%rax
    177c:	48 89 d6             	mov    %rdx,%rsi
    177f:	48 0f af f7          	imul   %rdi,%rsi
    1783:	48 89 d1             	mov    %rdx,%rcx
    1786:	49 d3 e8             	shr    %cl,%r8
    1789:	48 0f af c6          	imul   %rsi,%rax
    178d:	4c 89 c2             	mov    %r8,%rdx
    1790:	48 83 f2 ff          	xor    $0xffffffffffffffff,%rdx
    1794:	4c 29 c6             	sub    %r8,%rsi
    1797:	48 89 d1             	mov    %rdx,%rcx
    179a:	48 89 c7             	mov    %rax,%rdi
    179d:	48 d3 ef             	shr    %cl,%rdi
    17a0:	48 89 d1             	mov    %rdx,%rcx
    17a3:	48 d3 e0             	shl    %cl,%rax
    17a6:	48 89 d1             	mov    %rdx,%rcx
    17a9:	48 d3 e6             	shl    %cl,%rsi
    17ac:	48 89 c1             	mov    %rax,%rcx
    17af:	48 89 fa             	mov    %rdi,%rdx
    17b2:	48 d3 ea             	shr    %cl,%rdx
    17b5:	48 09 f8             	or     %rdi,%rax
    17b8:	48 01 fe             	add    %rdi,%rsi
    17bb:	48 83 f6 ff          	xor    $0xffffffffffffffff,%rsi
    17bf:	48 0f af c2          	imul   %rdx,%rax
    17c3:	48 89 f2             	mov    %rsi,%rdx
    17c6:	48 31 c2             	xor    %rax,%rdx
    17c9:	48 29 c6             	sub    %rax,%rsi
    17cc:	48 89 d7             	mov    %rdx,%rdi
    17cf:	48 31 f7             	xor    %rsi,%rdi
    17d2:	48 89 d1             	mov    %rdx,%rcx
    17d5:	48 89 f0             	mov    %rsi,%rax
    17d8:	48 d3 e0             	shl    %cl,%rax
    17db:	48 09 f2             	or     %rsi,%rdx
    17de:	48 89 fe             	mov    %rdi,%rsi
    17e1:	48 0f af f0          	imul   %rax,%rsi
    17e5:	48 0f af f8          	imul   %rax,%rdi
    17e9:	48 89 c1             	mov    %rax,%rcx
    17ec:	48 d3 ea             	shr    %cl,%rdx
    17ef:	48 89 d1             	mov    %rdx,%rcx
    17f2:	48 d3 e7             	shl    %cl,%rdi
    17f5:	48 09 f2             	or     %rsi,%rdx
    17f8:	48 01 d7             	add    %rdx,%rdi
    17fb:	48 b8 88 9e 8d 9a 89 	movabs $0x568c96899a8d9e88,%rax
    1802:	96 8c 56 
    1805:	48 31 c7             	xor    %rax,%rdi
    1808:	48 89 7d f5          	mov    %rdi,-0xb(%rbp)
    180c:	b8 00 00 fe 7f       	mov    $0x7ffe0000,%eax
    1811:	8b 00                	mov    (%rax),%eax
    1813:	c1 e8 08             	shr    $0x8,%eax
    1816:	25 ff 00 00 00       	and    $0xff,%eax
    181b:	05 fc ac 00 00       	add    $0xacfc,%eax
    1820:	66 69 c0 aa a0       	imul   $0xa0aa,%ax,%ax
    1825:	b9 00 00 fe 7f       	mov    $0x7ffe0000,%ecx
    182a:	8b 09                	mov    (%rcx),%ecx
    182c:	c1 e9 08             	shr    $0x8,%ecx
    182f:	81 e1 ff 00 00 00    	and    $0xff,%ecx
    1835:	81 c1 e9 27 00 00    	add    $0x27e9,%ecx
    183b:	66 69 f9 0d d9       	imul   $0xd90d,%cx,%di
    1840:	b9 00 00 fe 7f       	mov    $0x7ffe0000,%ecx
    1845:	8b 09                	mov    (%rcx),%ecx
    1847:	c1 e9 08             	shr    $0x8,%ecx
    184a:	81 e1 ff 00 00 00    	and    $0xff,%ecx
    1850:	81 c1 27 4f 00 00    	add    $0x4f27,%ecx
    1856:	66 ba 5f 89          	mov    $0x895f,%dx
    185a:	66 d3 e2             	shl    %cl,%dx
    185d:	66 89 c1             	mov    %ax,%cx
    1860:	66 d3 e2             	shl    %cl,%dx
    1863:	66 89 fe             	mov    %di,%si
    1866:	66 29 c6             	sub    %ax,%si
    1869:	66 31 c7             	xor    %ax,%di
    186c:	66 09 f2             	or     %si,%dx
    186f:	66 01 fe             	add    %di,%si
    1872:	66 89 d1             	mov    %dx,%cx
    1875:	66 89 f7             	mov    %si,%di
    1878:	66 d3 e7             	shl    %cl,%di
    187b:	66 41 89 d0          	mov    %dx,%r8w
    187f:	66 41 29 f0          	sub    %si,%r8w
    1883:	66 01 d6             	add    %dx,%si
    1886:	66 89 f1             	mov    %si,%cx
    1889:	66 89 f8             	mov    %di,%ax
    188c:	66 d3 e0             	shl    %cl,%ax
    188f:	66 44 29 c7          	sub    %r8w,%di
    1893:	66 89 f1             	mov    %si,%cx
    1896:	66 41 d3 e0          	shl    %cl,%r8w
    189a:	66 89 c1             	mov    %ax,%cx
    189d:	66 89 fa             	mov    %di,%dx
    18a0:	66 d3 e2             	shl    %cl,%dx
    18a3:	66 89 fe             	mov    %di,%si
    18a6:	66 44 09 c6          	or     %r8w,%si
    18aa:	66 01 f8             	add    %di,%ax
    18ad:	66 41 89 c0          	mov    %ax,%r8w
    18b1:	66 41 31 f0          	xor    %si,%r8w
    18b5:	66 31 d6             	xor    %dx,%si
    18b8:	66 31 d0             	xor    %dx,%ax
    18bb:	66 41 29 f0          	sub    %si,%r8w
    18bf:	66 01 c6             	add    %ax,%si
    18c2:	66 44 89 c1          	mov    %r8w,%cx
    18c6:	66 0f af ce          	imul   %si,%cx
    18ca:	66 44 89 c7          	mov    %r8w,%di
    18ce:	66 83 f7 ff          	xor    $0xffff,%di
    18d2:	66 41 09 f0          	or     %si,%r8w
    18d6:	66 89 fa             	mov    %di,%dx
    18d9:	66 31 ca             	xor    %cx,%dx
    18dc:	66 89 ce             	mov    %cx,%si
    18df:	66 44 31 c6          	xor    %r8w,%si
    18e3:	66 d3 e7             	shl    %cl,%di
    18e6:	66 89 d0             	mov    %dx,%ax
    18e9:	66 31 f8             	xor    %di,%ax
    18ec:	66 0f af fe          	imul   %si,%di
    18f0:	66 89 f1             	mov    %si,%cx
    18f3:	66 d3 e2             	shl    %cl,%dx
    18f6:	66 89 d6             	mov    %dx,%si
    18f9:	66 29 c6             	sub    %ax,%si
    18fc:	66 31 c7             	xor    %ax,%di
    18ff:	66 89 d1             	mov    %dx,%cx
    1902:	66 d3 e8             	shr    %cl,%ax
    1905:	66 89 c2             	mov    %ax,%dx
    1908:	66 0f af d6          	imul   %si,%dx
    190c:	66 31 f7             	xor    %si,%di
    190f:	66 31 f0             	xor    %si,%ax
    1912:	66 89 d1             	mov    %dx,%cx
    1915:	66 89 fe             	mov    %di,%si
    1918:	66 d3 e6             	shl    %cl,%si
    191b:	66 41 89 c0          	mov    %ax,%r8w
    191f:	66 41 29 f8          	sub    %di,%r8w
    1923:	66 31 d0             	xor    %dx,%ax
    1926:	66 89 f1             	mov    %si,%cx
    1929:	66 41 0f af c8       	imul   %r8w,%cx
    192e:	66 89 f2             	mov    %si,%dx
    1931:	66 83 f2 ff          	xor    $0xffff,%dx
    1935:	66 09 f0             	or     %si,%ax
    1938:	66 29 ca             	sub    %cx,%dx
    193b:	66 89 c7             	mov    %ax,%di
    193e:	66 31 cf             	xor    %cx,%di
    1941:	66 d3 e0             	shl    %cl,%ax
    1944:	66 41 89 f8          	mov    %di,%r8w
    1948:	66 41 31 c0          	xor    %ax,%r8w
    194c:	66 89 c1             	mov    %ax,%cx
    194f:	66 89 d0             	mov    %dx,%ax
    1952:	66 d3 e0             	shl    %cl,%ax
    1955:	66 09 d7             	or     %dx,%di
    1958:	66 89 c2             	mov    %ax,%dx
    195b:	66 29 fa             	sub    %di,%dx
    195e:	66 44 09 c7          	or     %r8w,%di
    1962:	66 89 c1             	mov    %ax,%cx
    1965:	66 41 d3 e8          	shr    %cl,%r8w
    1969:	66 89 fe             	mov    %di,%si
    196c:	66 29 d6             	sub    %dx,%si
    196f:	66 41 29 f8          	sub    %di,%r8w
    1973:	66 89 d1             	mov    %dx,%cx
    1976:	66 d3 e7             	shl    %cl,%di
    1979:	66 89 fa             	mov    %di,%dx
    197c:	66 01 f2             	add    %si,%dx
    197f:	66 41 89 f1          	mov    %si,%r9w
    1983:	66 41 29 f9          	sub    %di,%r9w
    1987:	66 44 29 c6          	sub    %r8w,%si
    198b:	66 89 f0             	mov    %si,%ax
    198e:	66 0f af c2          	imul   %dx,%ax
    1992:	66 89 f1             	mov    %si,%cx
    1995:	66 44 89 ce          	mov    %r9w,%si
    1999:	66 d3 ee             	shr    %cl,%si
    199c:	66 44 29 ca          	sub    %r9w,%dx
    19a0:	66 89 d1             	mov    %dx,%cx
    19a3:	66 d3 e0             	shl    %cl,%ax
    19a6:	66 83 f6 ff          	xor    $0xffff,%si
    19aa:	66 89 f2             	mov    %si,%dx
    19ad:	66 29 c2             	sub    %ax,%dx
    19b0:	66 89 c1             	mov    %ax,%cx
    19b3:	66 89 f7             	mov    %si,%di
    19b6:	66 d3 e7             	shl    %cl,%di
    19b9:	66 89 f1             	mov    %si,%cx
    19bc:	66 d3 e8             	shr    %cl,%ax
    19bf:	66 89 c1             	mov    %ax,%cx
    19c2:	66 83 f1 ff          	xor    $0xffff,%cx
    19c6:	66 01 c7             	add    %ax,%di
    19c9:	66 29 d0             	sub    %dx,%ax
    19cc:	66 89 fa             	mov    %di,%dx
    19cf:	66 29 ca             	sub    %cx,%dx
    19d2:	66 31 f9             	xor    %di,%cx
    19d5:	66 31 c7             	xor    %ax,%di
    19d8:	66 29 fa             	sub    %di,%dx
    19db:	66 89 ce             	mov    %cx,%si
    19de:	66 83 f6 ff          	xor    $0xffff,%si
    19e2:	66 31 f9             	xor    %di,%cx
    19e5:	66 89 f0             	mov    %si,%ax
    19e8:	66 01 c8             	add    %cx,%ax
    19eb:	66 89 d7             	mov    %dx,%di
    19ee:	66 29 f7             	sub    %si,%di
    19f1:	66 d3 e2             	shl    %cl,%dx
    19f4:	66 89 c1             	mov    %ax,%cx
    19f7:	66 d3 e7             	shl    %cl,%di
    19fa:	66 83 f2 ff          	xor    $0xffff,%dx
    19fe:	66 09 fa             	or     %di,%dx
    1a01:	66 83 f2 ff          	xor    $0xffff,%dx
    1a05:	66 81 f2 6e 67       	xor    $0x676e,%dx
    1a0a:	66 89 55 fd          	mov    %dx,-0x3(%rbp)
    1a0e:	b8 00 00 fe 7f       	mov    $0x7ffe0000,%eax
    1a13:	8b 08                	mov    (%rax),%ecx
    1a15:	c1 e9 08             	shr    $0x8,%ecx
    1a18:	81 e1 ff 00 00 00    	and    $0xff,%ecx
    1a1e:	81 c1 fe 00 00 00    	add    $0xfe,%ecx
    1a24:	b2 8d                	mov    $0x8d,%dl
    1a26:	d2 ea                	shr    %cl,%dl
    1a28:	b8 00 00 fe 7f       	mov    $0x7ffe0000,%eax
    1a2d:	8b 00                	mov    (%rax),%eax
    1a2f:	c1 e8 08             	shr    $0x8,%eax
    1a32:	25 ff 00 00 00       	and    $0xff,%eax
    1a37:	05 a3 00 00 00       	add    $0xa3,%eax
    1a3c:	0c f1                	or     $0xf1,%al
    1a3e:	b9 00 00 fe 7f       	mov    $0x7ffe0000,%ecx
    1a43:	8b 31                	mov    (%rcx),%esi
    1a45:	c1 ee 08             	shr    $0x8,%esi
    1a48:	81 e6 ff 00 00 00    	and    $0xff,%esi
    1a4e:	81 c6 e5 00 00 00    	add    $0xe5,%esi
    1a54:	40 80 ce 23          	or     $0x23,%sil
    1a58:	40 88 f7             	mov    %sil,%dil
    1a5b:	40 08 d7             	or     %dl,%dil
    1a5e:	88 c1                	mov    %al,%cl
    1a60:	40 30 f1             	xor    %sil,%cl
    1a63:	40 28 f0             	sub    %sil,%al
    1a66:	40 88 fa             	mov    %dil,%dl
    1a69:	d2 ea                	shr    %cl,%dl
    1a6b:	40 f6 e7             	mul    %dil
    1a6e:	40 88 d6             	mov    %dl,%sil
    1a71:	40 c0 e6 00          	shl    $0x0,%sil
    1a75:	88 d1                	mov    %dl,%cl
    1a77:	88 c2                	mov    %al,%dl
    1a79:	d2 ea                	shr    %cl,%dl
    1a7b:	34 00                	xor    $0x0,%al
    1a7d:	40 88 d7             	mov    %dl,%dil
    1a80:	40 08 f7             	or     %sil,%dil
    1a83:	88 c1                	mov    %al,%cl
    1a85:	d2 ea                	shr    %cl,%dl
    1a87:	40 28 c6             	sub    %al,%sil
    1a8a:	88 d0                	mov    %dl,%al
    1a8c:	40 f6 e7             	mul    %dil
    1a8f:	40 88 d7             	mov    %dl,%dil
    1a92:	40 28 f7             	sub    %sil,%dil
    1a95:	40 88 f1             	mov    %sil,%cl
    1a98:	d2 ea                	shr    %cl,%dl
    1a9a:	40 88 f9             	mov    %dil,%cl
    1a9d:	41 88 c0             	mov    %al,%r8b
    1aa0:	41 d2 e0             	shl    %cl,%r8b
    1aa3:	40 88 d6             	mov    %dl,%sil
    1aa6:	40 00 fe             	add    %dil,%sil
    1aa9:	88 c1                	mov    %al,%cl
    1aab:	d2 ea                	shr    %cl,%dl
    1aad:	44 88 c7             	mov    %r8b,%dil
    1ab0:	40 08 f7             	or     %sil,%dil
    1ab3:	40 30 d6             	xor    %dl,%sil
    1ab6:	41 80 f0 ff          	xor    $0xff,%r8b
    1aba:	40 88 f1             	mov    %sil,%cl
    1abd:	40 88 f8             	mov    %dil,%al
    1ac0:	d2 e0                	shl    %cl,%al
    1ac2:	44 00 c7             	add    %r8b,%dil
    1ac5:	44 00 c6             	add    %r8b,%sil
    1ac8:	88 c2                	mov    %al,%dl
    1aca:	40 28 f2             	sub    %sil,%dl
    1acd:	41 88 f8             	mov    %dil,%r8b
    1ad0:	41 28 f0             	sub    %sil,%r8b
    1ad3:	40 30 f8             	xor    %dil,%al
    1ad6:	88 c1                	mov    %al,%cl
    1ad8:	80 f1 ff             	xor    $0xff,%cl
    1adb:	30 c2                	xor    %al,%dl
    1add:	44 00 c0             	add    %r8b,%al
    1ae0:	d2 e2                	shl    %cl,%dl
    1ae2:	34 ff                	xor    $0xff,%al
    1ae4:	40 88 c6             	mov    %al,%sil
    1ae7:	40 80 f6 ff          	xor    $0xff,%sil
    1aeb:	f6 e2                	mul    %dl
    1aed:	88 c1                	mov    %al,%cl
    1aef:	40 88 cf             	mov    %cl,%dil
    1af2:	40 30 f7             	xor    %sil,%dil
    1af5:	40 88 f2             	mov    %sil,%dl
    1af8:	00 ca                	add    %cl,%dl
    1afa:	40 00 f1             	add    %sil,%cl
    1afd:	40 88 ce             	mov    %cl,%sil
    1b00:	40 08 d6             	or     %dl,%sil
    1b03:	88 d0                	mov    %dl,%al
    1b05:	40 f6 e7             	mul    %dil
    1b08:	30 ca                	xor    %cl,%dl
    1b0a:	88 c1                	mov    %al,%cl
    1b0c:	40 88 d7             	mov    %dl,%dil
    1b0f:	40 d2 ef             	shr    %cl,%dil
    1b12:	88 c1                	mov    %al,%cl
    1b14:	00 d1                	add    %dl,%cl
    1b16:	40 f6 e6             	mul    %sil
    1b19:	88 c2                	mov    %al,%dl
    1b1b:	40 88 f8             	mov    %dil,%al
    1b1e:	30 d0                	xor    %dl,%al
    1b20:	40 30 fa             	xor    %dil,%dl
    1b23:	40 28 f9             	sub    %dil,%cl
    1b26:	40 88 d6             	mov    %dl,%sil
    1b29:	40 d2 e6             	shl    %cl,%sil
    1b2c:	f6 e2                	mul    %dl
    1b2e:	40 00 f0             	add    %sil,%al
    1b31:	40 80 f6 ff          	xor    $0xff,%sil
    1b35:	88 c2                	mov    %al,%dl
    1b37:	40 00 f2             	add    %sil,%dl
    1b3a:	40 88 f1             	mov    %sil,%cl
    1b3d:	28 c1                	sub    %al,%cl
    1b3f:	40 80 f6 ff          	xor    $0xff,%sil
    1b43:	40 88 cf             	mov    %cl,%dil
    1b46:	40 80 f7 ff          	xor    $0xff,%dil
    1b4a:	88 c8                	mov    %cl,%al
    1b4c:	f6 e2                	mul    %dl
    1b4e:	40 d2 e6             	shl    %cl,%sil
    1b51:	41 88 c0             	mov    %al,%r8b
    1b54:	41 28 f8             	sub    %dil,%r8b
    1b57:	88 c1                	mov    %al,%cl
    1b59:	40 08 f1             	or     %sil,%cl
    1b5c:	40 f6 e6             	mul    %sil
    1b5f:	88 c2                	mov    %al,%dl
    1b61:	44 88 c0             	mov    %r8b,%al
    1b64:	08 c8                	or     %cl,%al
    1b66:	41 d2 e0             	shl    %cl,%r8b
    1b69:	00 ca                	add    %cl,%dl
    1b6b:	88 d1                	mov    %dl,%cl
    1b6d:	08 c1                	or     %al,%cl
    1b6f:	44 88 c7             	mov    %r8b,%dil
    1b72:	40 08 d7             	or     %dl,%dil
    1b75:	44 00 c2             	add    %r8b,%dl
    1b78:	40 88 fe             	mov    %dil,%sil
    1b7b:	40 d2 ee             	shr    %cl,%sil
    1b7e:	88 d0                	mov    %dl,%al
    1b80:	40 f6 e7             	mul    %dil
    1b83:	40 00 fa             	add    %dil,%dl
    1b86:	40 88 f1             	mov    %sil,%cl
    1b89:	40 88 d6             	mov    %dl,%sil
    1b8c:	40 d2 ee             	shr    %cl,%sil
    1b8f:	40 88 d7             	mov    %dl,%dil
    1b92:	40 00 c7             	add    %al,%dil
    1b95:	30 c2                	xor    %al,%dl
    1b97:	40 88 f1             	mov    %sil,%cl
    1b9a:	41 88 d0             	mov    %dl,%r8b
    1b9d:	41 d2 e0             	shl    %cl,%r8b
    1ba0:	88 d0                	mov    %dl,%al
    1ba2:	40 f6 e7             	mul    %dil
    1ba5:	40 88 c6             	mov    %al,%sil
    1ba8:	40 00 fa             	add    %dil,%dl
    1bab:	40 88 f0             	mov    %sil,%al
    1bae:	f6 e2                	mul    %dl
    1bb0:	40 88 f1             	mov    %sil,%cl
    1bb3:	44 30 c1             	xor    %r8b,%cl
    1bb6:	40 30 f2             	xor    %sil,%dl
    1bb9:	40 88 d6             	mov    %dl,%sil
    1bbc:	40 d2 ee             	shr    %cl,%sil
    1bbf:	08 d0                	or     %dl,%al
    1bc1:	40 f6 e6             	mul    %sil
    1bc4:	34 00                	xor    $0x0,%al
    1bc6:	88 45 ff             	mov    %al,-0x1(%rbp)
    1bc9:	48 8d 45 f5          	lea    -0xb(%rbp),%rax
    1bcd:	48 89 45 d0          	mov    %rax,-0x30(%rbp)
    1bd1:	48 8b 45 c0          	mov    -0x40(%rbp),%rax
    1bd5:	48 89 45 d8          	mov    %rax,-0x28(%rbp)
    1bd9:	48 8b 45 d0          	mov    -0x30(%rbp),%rax
    1bdd:	48 89 45 e0          	mov    %rax,-0x20(%rbp)
    1be1:	48 8b 75 d8          	mov    -0x28(%rbp),%rsi
    1be5:	48 8d 3d 4f 04 00 00 	lea    0x44f(%rip),%rdi        # 203b <_IO_stdin_used+0x3b>
    1bec:	b0 00                	mov    $0x0,%al
    1bee:	e8 3d f4 ff ff       	call   1030 <printf@plt>
    1bf3:	48 8b 75 e0          	mov    -0x20(%rbp),%rsi
    1bf7:	48 8d 3d 3d 04 00 00 	lea    0x43d(%rip),%rdi        # 203b <_IO_stdin_used+0x3b>
    1bfe:	b0 00                	mov    $0x0,%al
    1c00:	e8 2b f4 ff ff       	call   1030 <printf@plt>
    1c05:	e8 36 f5 ff ff       	call   1140 <_Z11str_printerv>
    1c0a:	b9 00 00 fe 7f       	mov    $0x7ffe0000,%ecx
    1c0f:	8b 09                	mov    (%rcx),%ecx
    1c11:	c1 e9 08             	shr    $0x8,%ecx
    1c14:	81 e1 ff 00 00 00    	and    $0xff,%ecx
    1c1a:	81 c1 00 00 10 00    	add    $0x100000,%ecx
    1c20:	81 f1 ae f0 7a 31    	xor    $0x317af0ae,%ecx
    1c26:	ba 00 00 fe 7f       	mov    $0x7ffe0000,%edx
    1c2b:	8b 12                	mov    (%rdx),%edx
    1c2d:	c1 ea 08             	shr    $0x8,%edx
    1c30:	81 e2 ff 00 00 00    	and    $0xff,%edx
    1c36:	81 c2 ff ff ff 00    	add    $0xffffff,%edx
    1c3c:	be 8d 91 2b 01       	mov    $0x12b918d,%esi
    1c41:	29 d6                	sub    %edx,%esi
    1c43:	31 f1                	xor    %esi,%ecx
    1c45:	83 e9 00             	sub    $0x0,%ecx
    1c48:	83 c9 00             	or     $0x0,%ecx
    1c4b:	31 d2                	xor    %edx,%edx
    1c4d:	d3 e2                	shl    %cl,%edx
    1c4f:	81 c2 56 34 12 00    	add    $0x123456,%edx
    1c55:	89 d1                	mov    %edx,%ecx
    1c57:	48 8d 3d dd 03 00 00 	lea    0x3dd(%rip),%rdi        # 203b <_IO_stdin_used+0x3b>
    1c5e:	48 81 c7 54 34 12 00 	add    $0x123454,%rdi
    1c65:	48 83 c7 02          	add    $0x2,%rdi
    1c69:	48 29 cf             	sub    %rcx,%rdi
    1c6c:	48 89 c6             	mov    %rax,%rsi
    1c6f:	b0 00                	mov    $0x0,%al
    1c71:	e8 ba f3 ff ff       	call   1030 <printf@plt>
    1c76:	31 c0                	xor    %eax,%eax
    1c78:	48 83 c4 50          	add    $0x50,%rsp
    1c7c:	5d                   	pop    %rbp
    1c7d:	c3                   	ret

Disassembly of section .fini:

0000000000001c80 <_fini>:
    1c80:	f3 0f 1e fa          	endbr64
    1c84:	48 83 ec 08          	sub    $0x8,%rsp
    1c88:	48 83 c4 08          	add    $0x8,%rsp
    1c8c:	c3                   	ret
