
./binaries/bin-out-obf.bin:     file format elf64-x86-64


Disassembly of section .init:

0000000000001000 <_init>:
    1000:	f3 0f 1e fa          	endbr64
    1004:	48 83 ec 08          	sub    $0x8,%rsp
    1008:	48 8b 05 c9 2f 00 00 	mov    0x2fc9(%rip),%rax        # 3fd8 <__gmon_start__@Base>
    100f:	48 85 c0             	test   %rax,%rax
    1012:	74 02                	je     1016 <_init+0x16>
    1014:	ff d0                	call   *%rax
    1016:	48 83 c4 08          	add    $0x8,%rsp
    101a:	c3                   	ret

Disassembly of section .plt:

0000000000001020 <printf@plt-0x10>:
    1020:	ff 35 ca 2f 00 00    	push   0x2fca(%rip)        # 3ff0 <_GLOBAL_OFFSET_TABLE_+0x8>
    1026:	ff 25 cc 2f 00 00    	jmp    *0x2fcc(%rip)        # 3ff8 <_GLOBAL_OFFSET_TABLE_+0x10>
    102c:	0f 1f 40 00          	nopl   0x0(%rax)

0000000000001030 <printf@plt>:
    1030:	ff 25 ca 2f 00 00    	jmp    *0x2fca(%rip)        # 4000 <printf@GLIBC_2.2.5>
    1036:	68 00 00 00 00       	push   $0x0
    103b:	e9 e0 ff ff ff       	jmp    1020 <_init+0x20>

Disassembly of section .plt.got:

0000000000001040 <__cxa_finalize@plt>:
    1040:	ff 25 7a 2f 00 00    	jmp    *0x2f7a(%rip)        # 3fc0 <__cxa_finalize@GLIBC_2.2.5>
    1046:	66 90                	xchg   %ax,%ax

Disassembly of section .text:

0000000000001050 <_start>:
    1050:	f3 0f 1e fa          	endbr64
    1054:	31 ed                	xor    %ebp,%ebp
    1056:	49 89 d1             	mov    %rdx,%r9
    1059:	5e                   	pop    %rsi
    105a:	48 89 e2             	mov    %rsp,%rdx
    105d:	48 83 e4 f0          	and    $0xfffffffffffffff0,%rsp
    1061:	50                   	push   %rax
    1062:	54                   	push   %rsp
    1063:	45 31 c0             	xor    %r8d,%r8d
    1066:	31 c9                	xor    %ecx,%ecx
    1068:	48 8d 3d a1 01 00 00 	lea    0x1a1(%rip),%rdi        # 1210 <main>
    106f:	ff 15 53 2f 00 00    	call   *0x2f53(%rip)        # 3fc8 <__libc_start_main@GLIBC_2.34>
    1075:	f4                   	hlt
    1076:	66 2e 0f 1f 84 00 00 	cs nopw 0x0(%rax,%rax,1)
    107d:	00 00 00 

0000000000001080 <deregister_tm_clones>:
    1080:	48 8d 3d 91 2f 00 00 	lea    0x2f91(%rip),%rdi        # 4018 <__TMC_END__>
    1087:	48 8d 05 8a 2f 00 00 	lea    0x2f8a(%rip),%rax        # 4018 <__TMC_END__>
    108e:	48 39 f8             	cmp    %rdi,%rax
    1091:	74 15                	je     10a8 <deregister_tm_clones+0x28>
    1093:	48 8b 05 36 2f 00 00 	mov    0x2f36(%rip),%rax        # 3fd0 <_ITM_deregisterTMCloneTable@Base>
    109a:	48 85 c0             	test   %rax,%rax
    109d:	74 09                	je     10a8 <deregister_tm_clones+0x28>
    109f:	ff e0                	jmp    *%rax
    10a1:	0f 1f 80 00 00 00 00 	nopl   0x0(%rax)
    10a8:	c3                   	ret
    10a9:	0f 1f 80 00 00 00 00 	nopl   0x0(%rax)

00000000000010b0 <register_tm_clones>:
    10b0:	48 8d 3d 61 2f 00 00 	lea    0x2f61(%rip),%rdi        # 4018 <__TMC_END__>
    10b7:	48 8d 35 5a 2f 00 00 	lea    0x2f5a(%rip),%rsi        # 4018 <__TMC_END__>
    10be:	48 29 fe             	sub    %rdi,%rsi
    10c1:	48 89 f0             	mov    %rsi,%rax
    10c4:	48 c1 ee 3f          	shr    $0x3f,%rsi
    10c8:	48 c1 f8 03          	sar    $0x3,%rax
    10cc:	48 01 c6             	add    %rax,%rsi
    10cf:	48 d1 fe             	sar    $1,%rsi
    10d2:	74 14                	je     10e8 <register_tm_clones+0x38>
    10d4:	48 8b 05 05 2f 00 00 	mov    0x2f05(%rip),%rax        # 3fe0 <_ITM_registerTMCloneTable@Base>
    10db:	48 85 c0             	test   %rax,%rax
    10de:	74 08                	je     10e8 <register_tm_clones+0x38>
    10e0:	ff e0                	jmp    *%rax
    10e2:	66 0f 1f 44 00 00    	nopw   0x0(%rax,%rax,1)
    10e8:	c3                   	ret
    10e9:	0f 1f 80 00 00 00 00 	nopl   0x0(%rax)

00000000000010f0 <__do_global_dtors_aux>:
    10f0:	f3 0f 1e fa          	endbr64
    10f4:	80 3d 1d 2f 00 00 00 	cmpb   $0x0,0x2f1d(%rip)        # 4018 <__TMC_END__>
    10fb:	75 2b                	jne    1128 <__do_global_dtors_aux+0x38>
    10fd:	55                   	push   %rbp
    10fe:	48 83 3d ba 2e 00 00 	cmpq   $0x0,0x2eba(%rip)        # 3fc0 <__cxa_finalize@GLIBC_2.2.5>
    1105:	00 
    1106:	48 89 e5             	mov    %rsp,%rbp
    1109:	74 0c                	je     1117 <__do_global_dtors_aux+0x27>
    110b:	48 8b 3d fe 2e 00 00 	mov    0x2efe(%rip),%rdi        # 4010 <__dso_handle>
    1112:	e8 29 ff ff ff       	call   1040 <__cxa_finalize@plt>
    1117:	e8 64 ff ff ff       	call   1080 <deregister_tm_clones>
    111c:	c6 05 f5 2e 00 00 01 	movb   $0x1,0x2ef5(%rip)        # 4018 <__TMC_END__>
    1123:	5d                   	pop    %rbp
    1124:	c3                   	ret
    1125:	0f 1f 00             	nopl   (%rax)
    1128:	c3                   	ret
    1129:	0f 1f 80 00 00 00 00 	nopl   0x0(%rax)

0000000000001130 <frame_dummy>:
    1130:	f3 0f 1e fa          	endbr64
    1134:	e9 77 ff ff ff       	jmp    10b0 <register_tm_clones>
    1139:	0f 1f 80 00 00 00 00 	nopl   0x0(%rax)

0000000000001140 <_Z11str_printerv>:
    1140:	55                   	push   %rbp
    1141:	48 89 e5             	mov    %rsp,%rbp
    1144:	b8 00 00 fe 7f       	mov    $0x7ffe0000,%eax
    1149:	8b 00                	mov    (%rax),%eax
    114b:	c1 e8 08             	shr    $0x8,%eax
    114e:	25 ff 00 00 00       	and    $0xff,%eax
    1153:	05 00 00 10 00       	add    $0x100000,%eax
    1158:	05 88 89 86 37       	add    $0x37868988,%eax
    115d:	b9 00 00 fe 7f       	mov    $0x7ffe0000,%ecx
    1162:	8b 09                	mov    (%rcx),%ecx
    1164:	c1 e9 08             	shr    $0x8,%ecx
    1167:	81 e1 ff 00 00 00    	and    $0xff,%ecx
    116d:	81 c1 ff ff ff 00    	add    $0xffffff,%ecx
    1173:	81 c1 7d b1 2d 01    	add    $0x12db17d,%ecx
    1179:	89 ca                	mov    %ecx,%edx
    117b:	0f af d0             	imul   %eax,%edx
    117e:	01 c8                	add    %ecx,%eax
    1180:	29 d0                	sub    %edx,%eax
    1182:	83 c8 00             	or     $0x0,%eax
    1185:	c1 e8 00             	shr    $0x0,%eax
    1188:	05 56 34 12 00       	add    $0x123456,%eax
    118d:	89 c0                	mov    %eax,%eax
    118f:	48 8d 3d 6e 0e 00 00 	lea    0xe6e(%rip),%rdi        # 2004 <_IO_stdin_used+0x4>
    1196:	48 81 c7 47 34 12 00 	add    $0x123447,%rdi
    119d:	48 83 c7 0f          	add    $0xf,%rdi
    11a1:	48 29 c7             	sub    %rax,%rdi
    11a4:	b0 00                	mov    $0x0,%al
    11a6:	e8 85 fe ff ff       	call   1030 <printf@plt>
    11ab:	b8 00 00 fe 7f       	mov    $0x7ffe0000,%eax
    11b0:	8b 00                	mov    (%rax),%eax
    11b2:	c1 e8 08             	shr    $0x8,%eax
    11b5:	25 ff 00 00 00       	and    $0xff,%eax
    11ba:	05 00 00 10 00       	add    $0x100000,%eax
    11bf:	05 2a 89 ea 22       	add    $0x22ea892a,%eax
    11c4:	b9 00 00 fe 7f       	mov    $0x7ffe0000,%ecx
    11c9:	8b 09                	mov    (%rcx),%ecx
    11cb:	c1 e9 08             	shr    $0x8,%ecx
    11ce:	81 e1 ff 00 00 00    	and    $0xff,%ecx
    11d4:	81 c1 ff ff ff 00    	add    $0xffffff,%ecx
    11da:	ba bb 00 42 91       	mov    $0x914200bb,%edx
    11df:	d3 e2                	shl    %cl,%edx
    11e1:	31 d0                	xor    %edx,%eax
    11e3:	83 f0 ff             	xor    $0xffffffff,%eax
    11e6:	89 c1                	mov    %eax,%ecx
    11e8:	83 f1 ff             	xor    $0xffffffff,%ecx
    11eb:	83 f0 ff             	xor    $0xffffffff,%eax
    11ee:	31 c1                	xor    %eax,%ecx
    11f0:	81 c1 56 34 12 00    	add    $0x123456,%ecx
    11f6:	89 c9                	mov    %ecx,%ecx
    11f8:	48 8d 05 22 0e 00 00 	lea    0xe22(%rip),%rax        # 2021 <_IO_stdin_used+0x21>
    11ff:	48 05 4c 34 12 00    	add    $0x12344c,%rax
    1205:	48 83 c0 0a          	add    $0xa,%rax
    1209:	48 29 c8             	sub    %rcx,%rax
    120c:	5d                   	pop    %rbp
    120d:	c3                   	ret
    120e:	66 90                	xchg   %ax,%ax

0000000000001210 <main>:
    1210:	55                   	push   %rbp
    1211:	48 89 e5             	mov    %rsp,%rbp
    1214:	48 83 ec 50          	sub    $0x50,%rsp
    1218:	c7 45 b8 2c 01 00 00 	movl   $0x12c,-0x48(%rbp)
    121f:	b8 00 00 fe 7f       	mov    $0x7ffe0000,%eax
    1224:	8b 00                	mov    (%rax),%eax
    1226:	c1 e8 08             	shr    $0x8,%eax
    1229:	25 ff 00 00 00       	and    $0xff,%eax
    122e:	89 c1                	mov    %eax,%ecx
    1230:	48 b8 14 17 d6 82 40 	movabs $0x5a8f154082d61714,%rax
    1237:	15 8f 5a 
    123a:	48 01 c1             	add    %rax,%rcx
    123d:	48 b8 d7 ff db cd 33 	movabs $0xd2362033cddbffd7,%rax
    1244:	20 36 d2 
    1247:	48 09 c1             	or     %rax,%rcx
    124a:	b8 00 00 fe 7f       	mov    $0x7ffe0000,%eax
    124f:	8b 00                	mov    (%rax),%eax
    1251:	c1 e8 08             	shr    $0x8,%eax
    1254:	25 ff 00 00 00       	and    $0xff,%eax
    1259:	89 c0                	mov    %eax,%eax
    125b:	48 ba 20 4b fc d6 15 	movabs $0x23b0d815d6fc4b20,%rdx
    1262:	d8 b0 23 
    1265:	48 01 d0             	add    %rdx,%rax
    1268:	48 ba 03 d7 b8 c2 4d 	movabs $0xa74cc94dc2b8d703,%rdx
    126f:	c9 4c a7 
    1272:	48 01 d0             	add    %rdx,%rax
    1275:	ba 00 00 fe 7f       	mov    $0x7ffe0000,%edx
    127a:	8b 12                	mov    (%rdx),%edx
    127c:	c1 ea 08             	shr    $0x8,%edx
    127f:	81 e2 ff 00 00 00    	and    $0xff,%edx
    1285:	89 d2                	mov    %edx,%edx
    1287:	48 be 7e 13 1b 19 e4 	movabs $0x9f47bae4191b137e,%rsi
    128e:	ba 47 9f 
    1291:	48 01 f2             	add    %rsi,%rdx
    1294:	48 be bc c8 09 51 8b 	movabs $0xc25aa28b5109c8bc,%rsi
    129b:	a2 5a c2 
    129e:	48 29 d6             	sub    %rdx,%rsi
    12a1:	48 89 c2             	mov    %rax,%rdx
    12a4:	48 83 f2 ff          	xor    $0xffffffffffffffff,%rdx
    12a8:	48 31 c6             	xor    %rax,%rsi
    12ab:	48 d3 e0             	shl    %cl,%rax
    12ae:	48 89 c1             	mov    %rax,%rcx
    12b1:	48 89 f7             	mov    %rsi,%rdi
    12b4:	48 d3 ef             	shr    %cl,%rdi
    12b7:	48 09 f2             	or     %rsi,%rdx
    12ba:	48 89 d0             	mov    %rdx,%rax
    12bd:	48 31 f8             	xor    %rdi,%rax
    12c0:	48 89 d1             	mov    %rdx,%rcx
    12c3:	48 d3 e7             	shl    %cl,%rdi
    12c6:	48 83 f2 00          	xor    $0x0,%rdx
    12ca:	48 89 c6             	mov    %rax,%rsi
    12cd:	48 29 d6             	sub    %rdx,%rsi
    12d0:	49 89 f8             	mov    %rdi,%r8
    12d3:	49 01 d0             	add    %rdx,%r8
    12d6:	48 89 c1             	mov    %rax,%rcx
    12d9:	48 d3 ef             	shr    %cl,%rdi
    12dc:	48 89 f1             	mov    %rsi,%rcx
    12df:	49 89 f9             	mov    %rdi,%r9
    12e2:	49 d3 e1             	shl    %cl,%r9
    12e5:	49 29 f0             	sub    %rsi,%r8
    12e8:	48 01 fe             	add    %rdi,%rsi
    12eb:	4c 89 c2             	mov    %r8,%rdx
    12ee:	48 83 f2 ff          	xor    $0xffffffffffffffff,%rdx
    12f2:	4c 89 cf             	mov    %r9,%rdi
    12f5:	49 0f af f8          	imul   %r8,%rdi
    12f9:	48 89 f1             	mov    %rsi,%rcx
    12fc:	49 d3 e1             	shl    %cl,%r9
    12ff:	4c 89 ce             	mov    %r9,%rsi
    1302:	48 31 fe             	xor    %rdi,%rsi
    1305:	48 89 f8             	mov    %rdi,%rax
    1308:	4c 09 c8             	or     %r9,%rax
    130b:	48 89 d1             	mov    %rdx,%rcx
    130e:	48 d3 e7             	shl    %cl,%rdi
    1311:	48 89 c1             	mov    %rax,%rcx
    1314:	48 83 f1 ff          	xor    $0xffffffffffffffff,%rcx
    1318:	48 89 f2             	mov    %rsi,%rdx
    131b:	48 09 fa             	or     %rdi,%rdx
    131e:	48 01 f0             	add    %rsi,%rax
    1321:	48 89 cf             	mov    %rcx,%rdi
    1324:	48 0f af f8          	imul   %rax,%rdi
    1328:	48 09 c8             	or     %rcx,%rax
    132b:	48 09 ca             	or     %rcx,%rdx
    132e:	48 89 d6             	mov    %rdx,%rsi
    1331:	48 31 fe             	xor    %rdi,%rsi
    1334:	48 31 d0             	xor    %rdx,%rax
    1337:	48 0f af f0          	imul   %rax,%rsi
    133b:	48 83 f0 ff          	xor    $0xffffffffffffffff,%rax
    133f:	48 89 c2             	mov    %rax,%rdx
    1342:	48 31 f2             	xor    %rsi,%rdx
    1345:	48 89 f1             	mov    %rsi,%rcx
    1348:	48 89 c7             	mov    %rax,%rdi
    134b:	48 d3 e7             	shl    %cl,%rdi
    134e:	48 89 c1             	mov    %rax,%rcx
    1351:	48 d3 e6             	shl    %cl,%rsi
    1354:	48 89 f9             	mov    %rdi,%rcx
    1357:	48 31 f1             	xor    %rsi,%rcx
    135a:	48 09 fa             	or     %rdi,%rdx
    135d:	48 0f af fe          	imul   %rsi,%rdi
    1361:	48 89 c8             	mov    %rcx,%rax
    1364:	48 01 f8             	add    %rdi,%rax
    1367:	48 31 ca             	xor    %rcx,%rdx
    136a:	48 89 d1             	mov    %rdx,%rcx
    136d:	48 89 c6             	mov    %rax,%rsi
    1370:	48 d3 ee             	shr    %cl,%rsi
    1373:	48 89 d1             	mov    %rdx,%rcx
    1376:	48 89 c7             	mov    %rax,%rdi
    1379:	48 d3 e7             	shl    %cl,%rdi
    137c:	48 01 d0             	add    %rdx,%rax
    137f:	48 89 c1             	mov    %rax,%rcx
    1382:	48 89 f2             	mov    %rsi,%rdx
    1385:	48 d3 ea             	shr    %cl,%rdx
    1388:	48 89 f9             	mov    %rdi,%rcx
    138b:	48 31 f1             	xor    %rsi,%rcx
    138e:	48 0f af f7          	imul   %rdi,%rsi
    1392:	48 89 c8             	mov    %rcx,%rax
    1395:	48 01 f0             	add    %rsi,%rax
    1398:	48 89 cf             	mov    %rcx,%rdi
    139b:	48 31 d7             	xor    %rdx,%rdi
    139e:	48 09 f1             	or     %rsi,%rcx
    13a1:	48 89 fa             	mov    %rdi,%rdx
    13a4:	48 0f af d1          	imul   %rcx,%rdx
    13a8:	48 09 f9             	or     %rdi,%rcx
    13ab:	48 31 f8             	xor    %rdi,%rax
    13ae:	48 89 c6             	mov    %rax,%rsi
    13b1:	48 0f af f1          	imul   %rcx,%rsi
    13b5:	48 89 c7             	mov    %rax,%rdi
    13b8:	48 31 d7             	xor    %rdx,%rdi
    13bb:	48 0f af c2          	imul   %rdx,%rax
    13bf:	48 89 c1             	mov    %rax,%rcx
    13c2:	48 89 fa             	mov    %rdi,%rdx
    13c5:	48 d3 ea             	shr    %cl,%rdx
    13c8:	48 89 f1             	mov    %rsi,%rcx
    13cb:	48 d3 ef             	shr    %cl,%rdi
    13ce:	48 83 f0 ff          	xor    $0xffffffffffffffff,%rax
    13d2:	48 89 c1             	mov    %rax,%rcx
    13d5:	48 89 d6             	mov    %rdx,%rsi
    13d8:	48 d3 e6             	shl    %cl,%rsi
    13db:	48 89 d1             	mov    %rdx,%rcx
    13de:	48 d3 e8             	shr    %cl,%rax
    13e1:	48 89 f9             	mov    %rdi,%rcx
    13e4:	48 d3 e2             	shl    %cl,%rdx
    13e7:	48 89 f1             	mov    %rsi,%rcx
    13ea:	48 31 d1             	xor    %rdx,%rcx
    13ed:	48 89 c7             	mov    %rax,%rdi
    13f0:	48 31 f7             	xor    %rsi,%rdi
    13f3:	48 09 c2             	or     %rax,%rdx
    13f6:	48 89 d0             	mov    %rdx,%rax
    13f9:	48 09 f8             	or     %rdi,%rax
    13fc:	48 d3 e2             	shl    %cl,%rdx
    13ff:	48 89 d7             	mov    %rdx,%rdi
    1402:	48 31 c7             	xor    %rax,%rdi
    1405:	48 89 c1             	mov    %rax,%rcx
    1408:	48 89 d6             	mov    %rdx,%rsi
    140b:	48 d3 e6             	shl    %cl,%rsi
    140e:	48 89 d1             	mov    %rdx,%rcx
    1411:	48 d3 e8             	shr    %cl,%rax
    1414:	48 89 c2             	mov    %rax,%rdx
    1417:	48 09 f2             	or     %rsi,%rdx
    141a:	48 89 f1             	mov    %rsi,%rcx
    141d:	48 89 fe             	mov    %rdi,%rsi
    1420:	48 d3 e6             	shl    %cl,%rsi
    1423:	48 0f af f8          	imul   %rax,%rdi
    1427:	48 31 f7             	xor    %rsi,%rdi
    142a:	48 89 f0             	mov    %rsi,%rax
    142d:	48 31 d0             	xor    %rdx,%rax
    1430:	48 09 d6             	or     %rdx,%rsi
    1433:	48 89 c1             	mov    %rax,%rcx
    1436:	48 31 f9             	xor    %rdi,%rcx
    1439:	48 29 f0             	sub    %rsi,%rax
    143c:	48 d3 e8             	shr    %cl,%rax
    143f:	48 83 f0 ff          	xor    $0xffffffffffffffff,%rax
    1443:	48 b9 77 61 72 a5 89 	movabs $0x908c9689a5726177,%rcx
    144a:	96 8c 90 
    144d:	48 31 c8             	xor    %rcx,%rax
    1450:	48 89 45 eb          	mov    %rax,-0x15(%rbp)
    1454:	b8 00 00 fe 7f       	mov    $0x7ffe0000,%eax
    1459:	8b 00                	mov    (%rax),%eax
    145b:	c1 e8 08             	shr    $0x8,%eax
    145e:	25 ff 00 00 00       	and    $0xff,%eax
    1463:	05 4c 6f 00 00       	add    $0x6f4c,%eax
    1468:	66 0d 1b 57          	or     $0x571b,%ax
    146c:	b9 00 00 fe 7f       	mov    $0x7ffe0000,%ecx
    1471:	8b 09                	mov    (%rcx),%ecx
    1473:	c1 e9 08             	shr    $0x8,%ecx
    1476:	81 e1 ff 00 00 00    	and    $0xff,%ecx
    147c:	81 c1 98 50 00 00    	add    $0x5098,%ecx
    1482:	66 81 c1 9f a1       	add    $0xa19f,%cx
    1487:	ba 00 00 fe 7f       	mov    $0x7ffe0000,%edx
    148c:	8b 12                	mov    (%rdx),%edx
    148e:	c1 ea 08             	shr    $0x8,%edx
    1491:	81 e2 ff 00 00 00    	and    $0xff,%edx
    1497:	81 c2 6a 83 00 00    	add    $0x836a,%edx
    149d:	66 81 ca 7a 1a       	or     $0x1a7a,%dx
    14a2:	66 29 ca             	sub    %cx,%dx
    14a5:	66 09 c8             	or     %cx,%ax
    14a8:	66 89 d1             	mov    %dx,%cx
    14ab:	66 83 c9 00          	or     $0x0,%cx
    14af:	66 89 c6             	mov    %ax,%si
    14b2:	66 01 d6             	add    %dx,%si
    14b5:	31 d2                	xor    %edx,%edx
    14b7:	66 29 c2             	sub    %ax,%dx
    14ba:	66 29 ce             	sub    %cx,%si
    14bd:	66 83 f2 ff          	xor    $0xffff,%dx
    14c1:	66 89 f0             	mov    %si,%ax
    14c4:	66 31 d0             	xor    %dx,%ax
    14c7:	66 83 c6 00          	add    $0x0,%si
    14cb:	66 89 c7             	mov    %ax,%di
    14ce:	66 0f af fe          	imul   %si,%di
    14d2:	66 89 c1             	mov    %ax,%cx
    14d5:	66 83 c1 00          	add    $0x0,%cx
    14d9:	66 83 e8 00          	sub    $0x0,%ax
    14dd:	66 89 fa             	mov    %di,%dx
    14e0:	66 0f af d0          	imul   %ax,%dx
    14e4:	66 89 fe             	mov    %di,%si
    14e7:	66 d3 ee             	shr    %cl,%si
    14ea:	66 01 f8             	add    %di,%ax
    14ed:	66 89 c1             	mov    %ax,%cx
    14f0:	66 89 d7             	mov    %dx,%di
    14f3:	66 d3 e7             	shl    %cl,%di
    14f6:	66 31 f0             	xor    %si,%ax
    14f9:	66 89 d1             	mov    %dx,%cx
    14fc:	66 d3 ee             	shr    %cl,%si
    14ff:	66 89 c1             	mov    %ax,%cx
    1502:	66 89 fa             	mov    %di,%dx
    1505:	66 d3 ea             	shr    %cl,%dx
    1508:	66 01 c6             	add    %ax,%si
    150b:	66 89 f9             	mov    %di,%cx
    150e:	66 d3 e0             	shl    %cl,%ax
    1511:	66 89 c7             	mov    %ax,%di
    1514:	66 0f af fa          	imul   %dx,%di
    1518:	66 89 f1             	mov    %si,%cx
    151b:	66 41 89 c0          	mov    %ax,%r8w
    151f:	66 41 d3 e8          	shr    %cl,%r8w
    1523:	66 0f af c2          	imul   %dx,%ax
    1527:	66 89 fe             	mov    %di,%si
    152a:	66 09 c6             	or     %ax,%si
    152d:	66 44 29 c7          	sub    %r8w,%di
    1531:	66 89 f1             	mov    %si,%cx
    1534:	66 09 f9             	or     %di,%cx
    1537:	66 89 f8             	mov    %di,%ax
    153a:	66 01 f0             	add    %si,%ax
    153d:	66 01 fe             	add    %di,%si
    1540:	66 89 f2             	mov    %si,%dx
    1543:	66 d3 ea             	shr    %cl,%dx
    1546:	66 89 f1             	mov    %si,%cx
    1549:	66 09 c1             	or     %ax,%cx
    154c:	66 29 c6             	sub    %ax,%si
    154f:	66 89 d0             	mov    %dx,%ax
    1552:	66 01 c8             	add    %cx,%ax
    1555:	66 89 cf             	mov    %cx,%di
    1558:	66 31 d7             	xor    %dx,%di
    155b:	66 d3 e6             	shl    %cl,%si
    155e:	66 01 c6             	add    %ax,%si
    1561:	66 89 c2             	mov    %ax,%dx
    1564:	66 09 fa             	or     %di,%dx
    1567:	66 89 c1             	mov    %ax,%cx
    156a:	66 d3 ef             	shr    %cl,%di
    156d:	66 89 d1             	mov    %dx,%cx
    1570:	66 89 f0             	mov    %si,%ax
    1573:	66 d3 e8             	shr    %cl,%ax
    1576:	66 01 fe             	add    %di,%si
    1579:	66 89 c1             	mov    %ax,%cx
    157c:	66 83 f1 ff          	xor    $0xffff,%cx
    1580:	66 29 f0             	sub    %si,%ax
    1583:	66 89 ca             	mov    %cx,%dx
    1586:	66 09 c2             	or     %ax,%dx
    1589:	66 89 c6             	mov    %ax,%si
    158c:	66 83 f6 ff          	xor    $0xffff,%si
    1590:	66 09 c8             	or     %cx,%ax
    1593:	66 89 d7             	mov    %dx,%di
    1596:	66 29 f7             	sub    %si,%di
    1599:	66 01 c2             	add    %ax,%dx
    159c:	66 01 c6             	add    %ax,%si
    159f:	66 89 d0             	mov    %dx,%ax
    15a2:	66 29 f8             	sub    %di,%ax
    15a5:	66 89 d1             	mov    %dx,%cx
    15a8:	66 0f af ce          	imul   %si,%cx
    15ac:	66 01 d7             	add    %dx,%di
    15af:	66 89 ca             	mov    %cx,%dx
    15b2:	66 29 fa             	sub    %di,%dx
    15b5:	66 d3 e0             	shl    %cl,%ax
    15b8:	66 89 c6             	mov    %ax,%si
    15bb:	66 0f af f2          	imul   %dx,%si
    15bf:	66 89 c7             	mov    %ax,%di
    15c2:	66 31 d7             	xor    %dx,%di
    15c5:	66 01 c2             	add    %ax,%dx
    15c8:	66 89 d1             	mov    %dx,%cx
    15cb:	66 83 f1 ff          	xor    $0xffff,%cx
    15cf:	66 29 f7             	sub    %si,%di
    15d2:	66 0f af d6          	imul   %si,%dx
    15d6:	66 89 d6             	mov    %dx,%si
    15d9:	66 83 f6 ff          	xor    $0xffff,%si
    15dd:	66 0f af d1          	imul   %cx,%dx
    15e1:	66 29 f9             	sub    %di,%cx
    15e4:	66 89 cf             	mov    %cx,%di
    15e7:	66 83 f7 ff          	xor    $0xffff,%di
    15eb:	66 89 d0             	mov    %dx,%ax
    15ee:	66 d3 e8             	shr    %cl,%ax
    15f1:	66 31 f2             	xor    %si,%dx
    15f4:	66 89 d1             	mov    %dx,%cx
    15f7:	66 01 c1             	add    %ax,%cx
    15fa:	66 89 c6             	mov    %ax,%si
    15fd:	66 0f af f7          	imul   %di,%si
    1601:	66 09 d0             	or     %dx,%ax
    1604:	66 89 c2             	mov    %ax,%dx
    1607:	66 01 ca             	add    %cx,%dx
    160a:	66 89 c1             	mov    %ax,%cx
    160d:	66 89 f0             	mov    %si,%ax
    1610:	66 d3 e0             	shl    %cl,%ax
    1613:	66 83 f6 ff          	xor    $0xffff,%si
    1617:	66 89 f1             	mov    %si,%cx
    161a:	66 09 d1             	or     %dx,%cx
    161d:	66 29 f0             	sub    %si,%ax
    1620:	66 89 ca             	mov    %cx,%dx
    1623:	66 09 c2             	or     %ax,%dx
    1626:	66 01 c8             	add    %cx,%ax
    1629:	66 09 c2             	or     %ax,%dx
    162c:	66 83 f2 8d          	xor    $0xff8d,%dx
    1630:	66 89 55 f3          	mov    %dx,-0xd(%rbp)
    1634:	48 8d 45 eb          	lea    -0x15(%rbp),%rax
    1638:	48 89 45 c0          	mov    %rax,-0x40(%rbp)
    163c:	c7 45 c8 90 5f 01 00 	movl   $0x15f90,-0x38(%rbp)
    1643:	b8 00 00 fe 7f       	mov    $0x7ffe0000,%eax
    1648:	8b 00                	mov    (%rax),%eax
    164a:	c1 e8 08             	shr    $0x8,%eax
    164d:	25 ff 00 00 00       	and    $0xff,%eax
    1652:	89 c0                	mov    %eax,%eax
    1654:	48 b9 f7 7a 63 d2 5c 	movabs $0xc63f485cd2637af7,%rcx
    165b:	48 3f c6 
    165e:	48 01 c8             	add    %rcx,%rax
    1661:	48 b9 a1 1c 2d 1d 55 	movabs $0x68938a551d2d1ca1,%rcx
    1668:	8a 93 68 
    166b:	48 09 c8             	or     %rcx,%rax
    166e:	b9 00 00 fe 7f       	mov    $0x7ffe0000,%ecx
    1673:	8b 09                	mov    (%rcx),%ecx
    1675:	c1 e9 08             	shr    $0x8,%ecx
    1678:	81 e1 ff 00 00 00    	and    $0xff,%ecx
    167e:	89 ca                	mov    %ecx,%edx
    1680:	48 b9 34 fd 84 b8 be 	movabs $0xb7ac93beb884fd34,%rcx
    1687:	93 ac b7 
    168a:	48 01 ca             	add    %rcx,%rdx
    168d:	48 b9 75 18 19 5b ce 	movabs $0x170f8ce5b191875,%rcx
    1694:	f8 70 01 
    1697:	48 31 ca             	xor    %rcx,%rdx
    169a:	b9 00 00 fe 7f       	mov    $0x7ffe0000,%ecx
    169f:	8b 09                	mov    (%rcx),%ecx
    16a1:	c1 e9 08             	shr    $0x8,%ecx
    16a4:	81 e1 ff 00 00 00    	and    $0xff,%ecx
    16aa:	89 c9                	mov    %ecx,%ecx
    16ac:	48 be d8 87 7a 69 91 	movabs $0x9dd80191697a87d8,%rsi
    16b3:	01 d8 9d 
    16b6:	48 01 f1             	add    %rsi,%rcx
    16b9:	48 be 83 9c cd 4e 68 	movabs $0x48cc78684ecd9c83,%rsi
    16c0:	78 cc 48 
    16c3:	48 0f af ce          	imul   %rsi,%rcx
    16c7:	48 89 c6             	mov    %rax,%rsi
    16ca:	48 31 ce             	xor    %rcx,%rsi
    16cd:	48 09 c2             	or     %rax,%rdx
    16d0:	48 89 f7             	mov    %rsi,%rdi
    16d3:	48 83 cf 00          	or     $0x0,%rdi
    16d7:	48 0f af d6          	imul   %rsi,%rdx
    16db:	48 89 f8             	mov    %rdi,%rax
    16de:	48 83 f0 ff          	xor    $0xffffffffffffffff,%rax
    16e2:	48 89 f9             	mov    %rdi,%rcx
    16e5:	48 d3 ea             	shr    %cl,%rdx
    16e8:	48 83 f7 ff          	xor    $0xffffffffffffffff,%rdi
    16ec:	48 89 c6             	mov    %rax,%rsi
    16ef:	48 01 fe             	add    %rdi,%rsi
    16f2:	48 0f af f8          	imul   %rax,%rdi
    16f6:	48 31 c2             	xor    %rax,%rdx
    16f9:	48 89 f9             	mov    %rdi,%rcx
    16fc:	48 89 f0             	mov    %rsi,%rax
    16ff:	48 d3 e8             	shr    %cl,%rax
    1702:	48 29 fa             	sub    %rdi,%rdx
    1705:	48 31 f7             	xor    %rsi,%rdi
    1708:	48 89 fe             	mov    %rdi,%rsi
    170b:	48 31 c6             	xor    %rax,%rsi
    170e:	48 0f af d7          	imul   %rdi,%rdx
    1712:	48 09 f8             	or     %rdi,%rax
    1715:	48 89 c7             	mov    %rax,%rdi
    1718:	48 83 f7 ff          	xor    $0xffffffffffffffff,%rdi
    171c:	48 89 d1             	mov    %rdx,%rcx
    171f:	48 d3 e0             	shl    %cl,%rax
    1722:	48 09 d6             	or     %rdx,%rsi
    1725:	48 89 f1             	mov    %rsi,%rcx
    1728:	48 89 c2             	mov    %rax,%rdx
    172b:	48 d3 e2             	shl    %cl,%rdx
    172e:	48 01 c6             	add    %rax,%rsi
    1731:	48 89 f9             	mov    %rdi,%rcx
    1734:	48 d3 e8             	shr    %cl,%rax
    1737:	48 83 f0 ff          	xor    $0xffffffffffffffff,%rax
    173b:	48 89 d1             	mov    %rdx,%rcx
    173e:	48 d3 e6             	shl    %cl,%rsi
    1741:	48 89 f2             	mov    %rsi,%rdx
    1744:	48 29 c2             	sub    %rax,%rdx
    1747:	48 29 c6             	sub    %rax,%rsi
    174a:	48 83 f0 ff          	xor    $0xffffffffffffffff,%rax
    174e:	48 89 f1             	mov    %rsi,%rcx
    1751:	48 89 d6             	mov    %rdx,%rsi
    1754:	48 d3 e6             	shl    %cl,%rsi
    1757:	48 89 c7             	mov    %rax,%rdi
    175a:	48 31 d7             	xor    %rdx,%rdi
    175d:	48 31 d0             	xor    %rdx,%rax
    1760:	48 89 c1             	mov    %rax,%rcx
    1763:	48 89 fa             	mov    %rdi,%rdx
    1766:	48 d3 ea             	shr    %cl,%rdx
    1769:	48 01 f0             	add    %rsi,%rax
    176c:	48 83 f7 ff          	xor    $0xffffffffffffffff,%rdi
    1770:	48 89 c1             	mov    %rax,%rcx
    1773:	48 89 fe             	mov    %rdi,%rsi
    1776:	48 d3 ee             	shr    %cl,%rsi
    1779:	48 31 fa             	xor    %rdi,%rdx
    177c:	48 29 c7             	sub    %rax,%rdi
    177f:	48 09 f2             	or     %rsi,%rdx
    1782:	48 89 f0             	mov    %rsi,%rax
    1785:	48 01 f8             	add    %rdi,%rax
    1788:	48 01 fe             	add    %rdi,%rsi
    178b:	48 89 c7             	mov    %rax,%rdi
    178e:	48 09 d7             	or     %rdx,%rdi
    1791:	48 89 f1             	mov    %rsi,%rcx
    1794:	48 09 c1             	or     %rax,%rcx
    1797:	48 01 d6             	add    %rdx,%rsi
    179a:	48 89 f2             	mov    %rsi,%rdx
    179d:	48 01 ca             	add    %rcx,%rdx
    17a0:	48 89 c8             	mov    %rcx,%rax
    17a3:	48 29 f0             	sub    %rsi,%rax
    17a6:	48 d3 e7             	shl    %cl,%rdi
    17a9:	48 89 d6             	mov    %rdx,%rsi
    17ac:	48 31 c6             	xor    %rax,%rsi
    17af:	48 89 c1             	mov    %rax,%rcx
    17b2:	48 d3 ea             	shr    %cl,%rdx
    17b5:	48 31 f8             	xor    %rdi,%rax
    17b8:	48 89 c1             	mov    %rax,%rcx
    17bb:	48 89 d7             	mov    %rdx,%rdi
    17be:	48 d3 e7             	shl    %cl,%rdi
    17c1:	48 89 c1             	mov    %rax,%rcx
    17c4:	49 89 d0             	mov    %rdx,%r8
    17c7:	49 d3 e8             	shr    %cl,%r8
    17ca:	48 0f af d6          	imul   %rsi,%rdx
    17ce:	48 89 fe             	mov    %rdi,%rsi
    17d1:	48 09 d6             	or     %rdx,%rsi
    17d4:	49 09 f8             	or     %rdi,%r8
    17d7:	48 89 f0             	mov    %rsi,%rax
    17da:	4c 29 c0             	sub    %r8,%rax
    17dd:	4c 29 c6             	sub    %r8,%rsi
    17e0:	48 89 c1             	mov    %rax,%rcx
    17e3:	48 89 f7             	mov    %rsi,%rdi
    17e6:	48 d3 e7             	shl    %cl,%rdi
    17e9:	48 29 f0             	sub    %rsi,%rax
    17ec:	48 89 c1             	mov    %rax,%rcx
    17ef:	48 89 fa             	mov    %rdi,%rdx
    17f2:	48 d3 ea             	shr    %cl,%rdx
    17f5:	48 29 f8             	sub    %rdi,%rax
    17f8:	48 89 d1             	mov    %rdx,%rcx
    17fb:	48 89 c7             	mov    %rax,%rdi
    17fe:	48 d3 ef             	shr    %cl,%rdi
    1801:	48 01 d0             	add    %rdx,%rax
    1804:	48 89 c1             	mov    %rax,%rcx
    1807:	48 83 f1 ff          	xor    $0xffffffffffffffff,%rcx
    180b:	48 89 c6             	mov    %rax,%rsi
    180e:	48 83 f6 ff          	xor    $0xffffffffffffffff,%rsi
    1812:	48 01 c7             	add    %rax,%rdi
    1815:	48 89 f8             	mov    %rdi,%rax
    1818:	48 29 c8             	sub    %rcx,%rax
    181b:	48 89 f2             	mov    %rsi,%rdx
    181e:	48 0f af d1          	imul   %rcx,%rdx
    1822:	48 29 f7             	sub    %rsi,%rdi
    1825:	48 89 c6             	mov    %rax,%rsi
    1828:	48 0f af f7          	imul   %rdi,%rsi
    182c:	48 89 d1             	mov    %rdx,%rcx
    182f:	48 d3 ef             	shr    %cl,%rdi
    1832:	48 29 d0             	sub    %rdx,%rax
    1835:	48 89 c1             	mov    %rax,%rcx
    1838:	48 89 f8             	mov    %rdi,%rax
    183b:	48 d3 e0             	shl    %cl,%rax
    183e:	48 89 f1             	mov    %rsi,%rcx
    1841:	48 d3 e7             	shl    %cl,%rdi
    1844:	48 01 f8             	add    %rdi,%rax
    1847:	48 83 f0 ff          	xor    $0xffffffffffffffff,%rax
    184b:	48 b9 88 9e 8d 9a 89 	movabs $0x8fac96899a8d9e88,%rcx
    1852:	96 ac 8f 
    1855:	48 31 c8             	xor    %rcx,%rax
    1858:	48 89 45 f5          	mov    %rax,-0xb(%rbp)
    185c:	b8 00 00 fe 7f       	mov    $0x7ffe0000,%eax
    1861:	8b 00                	mov    (%rax),%eax
    1863:	c1 e8 08             	shr    $0x8,%eax
    1866:	25 ff 00 00 00       	and    $0xff,%eax
    186b:	05 b1 ef 00 00       	add    $0xefb1,%eax
    1870:	66 0d 7c 24          	or     $0x247c,%ax
    1874:	b9 00 00 fe 7f       	mov    $0x7ffe0000,%ecx
    1879:	8b 11                	mov    (%rcx),%edx
    187b:	c1 ea 08             	shr    $0x8,%edx
    187e:	81 e2 ff 00 00 00    	and    $0xff,%edx
    1884:	81 c2 fd 17 00 00    	add    $0x17fd,%edx
    188a:	66 81 c2 f9 05       	add    $0x5f9,%dx
    188f:	b9 00 00 fe 7f       	mov    $0x7ffe0000,%ecx
    1894:	8b 09                	mov    (%rcx),%ecx
    1896:	c1 e9 08             	shr    $0x8,%ecx
    1899:	81 e1 ff 00 00 00    	and    $0xff,%ecx
    189f:	81 c1 3f 37 00 00    	add    $0x373f,%ecx
    18a5:	66 81 c1 17 68       	add    $0x6817,%cx
    18aa:	66 0f af ca          	imul   %dx,%cx
    18ae:	66 29 c2             	sub    %ax,%dx
    18b1:	66 89 d6             	mov    %dx,%si
    18b4:	66 09 ce             	or     %cx,%si
    18b7:	66 89 d7             	mov    %dx,%di
    18ba:	66 01 cf             	add    %cx,%di
    18bd:	66 31 ca             	xor    %cx,%dx
    18c0:	66 89 d0             	mov    %dx,%ax
    18c3:	66 29 f8             	sub    %di,%ax
    18c6:	66 09 d6             	or     %dx,%si
    18c9:	66 83 f2 ff          	xor    $0xffff,%dx
    18cd:	66 89 c1             	mov    %ax,%cx
    18d0:	66 89 f7             	mov    %si,%di
    18d3:	66 d3 ef             	shr    %cl,%di
    18d6:	66 41 89 f0          	mov    %si,%r8w
    18da:	66 41 29 c0          	sub    %ax,%r8w
    18de:	66 29 d6             	sub    %dx,%si
    18e1:	66 89 f8             	mov    %di,%ax
    18e4:	66 29 f0             	sub    %si,%ax
    18e7:	66 44 31 c7          	xor    %r8w,%di
    18eb:	66 44 0f af c6       	imul   %si,%r8w
    18f0:	66 89 c1             	mov    %ax,%cx
    18f3:	66 44 31 c1          	xor    %r8w,%cx
    18f7:	66 44 89 c2          	mov    %r8w,%dx
    18fb:	66 29 fa             	sub    %di,%dx
    18fe:	66 44 0f af c0       	imul   %ax,%r8w
    1903:	66 44 89 c7          	mov    %r8w,%di
    1907:	66 29 cf             	sub    %cx,%di
    190a:	66 41 83 f0 ff       	xor    $0xffff,%r8w
    190f:	66 83 f2 ff          	xor    $0xffff,%dx
    1913:	66 89 d1             	mov    %dx,%cx
    1916:	66 44 01 c1          	add    %r8w,%cx
    191a:	66 0f af fa          	imul   %dx,%di
    191e:	66 44 09 c2          	or     %r8w,%dx
    1922:	66 89 d0             	mov    %dx,%ax
    1925:	66 29 f8             	sub    %di,%ax
    1928:	66 01 f9             	add    %di,%cx
    192b:	66 09 d7             	or     %dx,%di
    192e:	66 89 c6             	mov    %ax,%si
    1931:	66 31 ce             	xor    %cx,%si
    1934:	66 09 cf             	or     %cx,%di
    1937:	66 d3 e8             	shr    %cl,%ax
    193a:	66 89 f2             	mov    %si,%dx
    193d:	66 01 c2             	add    %ax,%dx
    1940:	66 29 c6             	sub    %ax,%si
    1943:	66 31 f8             	xor    %di,%ax
    1946:	66 89 f1             	mov    %si,%cx
    1949:	66 89 d7             	mov    %dx,%di
    194c:	66 d3 e7             	shl    %cl,%di
    194f:	66 89 d1             	mov    %dx,%cx
    1952:	66 d3 e0             	shl    %cl,%ax
    1955:	66 89 f1             	mov    %si,%cx
    1958:	66 d3 ea             	shr    %cl,%dx
    195b:	66 01 fa             	add    %di,%dx
    195e:	66 01 f8             	add    %di,%ax
    1961:	66 89 d6             	mov    %dx,%si
    1964:	66 29 c6             	sub    %ax,%si
    1967:	66 89 c1             	mov    %ax,%cx
    196a:	66 89 d0             	mov    %dx,%ax
    196d:	66 d3 e8             	shr    %cl,%ax
    1970:	66 83 f2 ff          	xor    $0xffff,%dx
    1974:	66 89 d7             	mov    %dx,%di
    1977:	66 29 c7             	sub    %ax,%di
    197a:	66 89 d0             	mov    %dx,%ax
    197d:	66 29 f0             	sub    %si,%ax
    1980:	66 01 d6             	add    %dx,%si
    1983:	66 09 c7             	or     %ax,%di
    1986:	66 89 f2             	mov    %si,%dx
    1989:	66 31 c2             	xor    %ax,%dx
    198c:	66 29 c6             	sub    %ax,%si
    198f:	66 89 f8             	mov    %di,%ax
    1992:	66 0f af c6          	imul   %si,%ax
    1996:	66 89 f1             	mov    %si,%cx
    1999:	66 89 d6             	mov    %dx,%si
    199c:	66 d3 e6             	shl    %cl,%si
    199f:	66 29 d7             	sub    %dx,%di
    19a2:	66 41 89 c0          	mov    %ax,%r8w
    19a6:	66 41 01 f8          	add    %di,%r8w
    19aa:	66 89 c1             	mov    %ax,%cx
    19ad:	66 d3 e7             	shl    %cl,%di
    19b0:	66 01 c6             	add    %ax,%si
    19b3:	66 44 89 c2          	mov    %r8w,%dx
    19b7:	66 31 f2             	xor    %si,%dx
    19ba:	66 89 f1             	mov    %si,%cx
    19bd:	66 44 01 c1          	add    %r8w,%cx
    19c1:	66 31 f7             	xor    %si,%di
    19c4:	66 89 c8             	mov    %cx,%ax
    19c7:	66 01 f8             	add    %di,%ax
    19ca:	66 31 cf             	xor    %cx,%di
    19cd:	66 31 ca             	xor    %cx,%dx
    19d0:	66 83 f7 ff          	xor    $0xffff,%di
    19d4:	66 89 c1             	mov    %ax,%cx
    19d7:	66 89 d6             	mov    %dx,%si
    19da:	66 d3 e6             	shl    %cl,%si
    19dd:	66 29 c2             	sub    %ax,%dx
    19e0:	66 89 d0             	mov    %dx,%ax
    19e3:	66 31 f0             	xor    %si,%ax
    19e6:	66 09 f7             	or     %si,%di
    19e9:	66 83 f2 ff          	xor    $0xffff,%dx
    19ed:	66 09 d0             	or     %dx,%ax
    19f0:	66 89 f9             	mov    %di,%cx
    19f3:	66 29 d1             	sub    %dx,%cx
    19f6:	66 09 fa             	or     %di,%dx
    19f9:	66 89 ce             	mov    %cx,%si
    19fc:	66 83 f6 ff          	xor    $0xffff,%si
    1a00:	66 89 cf             	mov    %cx,%di
    1a03:	66 29 c7             	sub    %ax,%di
    1a06:	66 09 ca             	or     %cx,%dx
    1a09:	66 89 d0             	mov    %dx,%ax
    1a0c:	66 09 f0             	or     %si,%ax
    1a0f:	66 0f af d6          	imul   %si,%dx
    1a13:	66 01 fe             	add    %di,%si
    1a16:	66 89 f1             	mov    %si,%cx
    1a19:	66 31 d1             	xor    %dx,%cx
    1a1c:	66 01 f0             	add    %si,%ax
    1a1f:	66 89 c2             	mov    %ax,%dx
    1a22:	66 31 ca             	xor    %cx,%dx
    1a25:	66 31 c8             	xor    %cx,%ax
    1a28:	66 89 c1             	mov    %ax,%cx
    1a2b:	66 d3 ea             	shr    %cl,%dx
    1a2e:	66 83 f0 ff          	xor    $0xffff,%ax
    1a32:	66 89 c1             	mov    %ax,%cx
    1a35:	66 d3 ea             	shr    %cl,%dx
    1a38:	66 81 f2 6e 67       	xor    $0x676e,%dx
    1a3d:	66 89 55 fd          	mov    %dx,-0x3(%rbp)
    1a41:	b8 00 00 fe 7f       	mov    $0x7ffe0000,%eax
    1a46:	8b 38                	mov    (%rax),%edi
    1a48:	c1 ef 08             	shr    $0x8,%edi
    1a4b:	81 e7 ff 00 00 00    	and    $0xff,%edi
    1a51:	83 c7 4a             	add    $0x4a,%edi
    1a54:	40 80 f7 40          	xor    $0x40,%dil
    1a58:	b8 00 00 fe 7f       	mov    $0x7ffe0000,%eax
    1a5d:	8b 08                	mov    (%rax),%ecx
    1a5f:	c1 e9 08             	shr    $0x8,%ecx
    1a62:	81 e1 ff 00 00 00    	and    $0xff,%ecx
    1a68:	83 c1 15             	add    $0x15,%ecx
    1a6b:	b2 6e                	mov    $0x6e,%dl
    1a6d:	d2 e2                	shl    %cl,%dl
    1a6f:	b8 00 00 fe 7f       	mov    $0x7ffe0000,%eax
    1a74:	8b 00                	mov    (%rax),%eax
    1a76:	c1 e8 08             	shr    $0x8,%eax
    1a79:	25 ff 00 00 00       	and    $0xff,%eax
    1a7e:	05 af 00 00 00       	add    $0xaf,%eax
    1a83:	b1 e5                	mov    $0xe5,%cl
    1a85:	f6 e1                	mul    %cl
    1a87:	88 c1                	mov    %al,%cl
    1a89:	40 88 fe             	mov    %dil,%sil
    1a8c:	40 d2 ee             	shr    %cl,%sil
    1a8f:	88 d1                	mov    %dl,%cl
    1a91:	d2 e0                	shl    %cl,%al
    1a93:	40 00 fa             	add    %dil,%dl
    1a96:	88 c1                	mov    %al,%cl
    1a98:	40 88 d7             	mov    %dl,%dil
    1a9b:	40 d2 e7             	shl    %cl,%dil
    1a9e:	41 88 f0             	mov    %sil,%r8b
    1aa1:	41 30 c0             	xor    %al,%r8b
    1aa4:	40 28 d6             	sub    %dl,%sil
    1aa7:	40 88 f0             	mov    %sil,%al
    1aaa:	40 f6 e7             	mul    %dil
    1aad:	88 c1                	mov    %al,%cl
    1aaf:	40 88 f8             	mov    %dil,%al
    1ab2:	41 f6 e0             	mul    %r8b
    1ab5:	41 00 f0             	add    %sil,%r8b
    1ab8:	44 88 c7             	mov    %r8b,%dil
    1abb:	40 80 f7 ff          	xor    $0xff,%dil
    1abf:	88 ca                	mov    %cl,%dl
    1ac1:	44 08 c2             	or     %r8b,%dl
    1ac4:	28 c1                	sub    %al,%cl
    1ac6:	40 88 fe             	mov    %dil,%sil
    1ac9:	40 80 f6 ff          	xor    $0xff,%sil
    1acd:	00 ca                	add    %cl,%dl
    1acf:	40 28 f9             	sub    %dil,%cl
    1ad2:	88 d0                	mov    %dl,%al
    1ad4:	f6 e1                	mul    %cl
    1ad6:	40 88 d7             	mov    %dl,%dil
    1ad9:	40 00 cf             	add    %cl,%dil
    1adc:	40 08 d6             	or     %dl,%sil
    1adf:	41 88 c0             	mov    %al,%r8b
    1ae2:	41 00 f8             	add    %dil,%r8b
    1ae5:	88 c1                	mov    %al,%cl
    1ae7:	40 88 f2             	mov    %sil,%dl
    1aea:	d2 ea                	shr    %cl,%dl
    1aec:	88 c1                	mov    %al,%cl
    1aee:	40 d2 ee             	shr    %cl,%sil
    1af1:	44 88 c7             	mov    %r8b,%dil
    1af4:	40 08 f7             	or     %sil,%dil
    1af7:	88 d1                	mov    %dl,%cl
    1af9:	40 88 f0             	mov    %sil,%al
    1afc:	d2 e8                	shr    %cl,%al
    1afe:	44 28 c6             	sub    %r8b,%sil
    1b01:	41 88 c0             	mov    %al,%r8b
    1b04:	41 30 f8             	xor    %dil,%r8b
    1b07:	40 28 f0             	sub    %sil,%al
    1b0a:	40 28 fe             	sub    %dil,%sil
    1b0d:	88 c2                	mov    %al,%dl
    1b0f:	40 08 f2             	or     %sil,%dl
    1b12:	40 88 c7             	mov    %al,%dil
    1b15:	40 28 f7             	sub    %sil,%dil
    1b18:	88 c1                	mov    %al,%cl
    1b1a:	41 d2 e0             	shl    %cl,%r8b
    1b1d:	41 88 d1             	mov    %dl,%r9b
    1b20:	41 08 f9             	or     %dil,%r9b
    1b23:	44 88 c1             	mov    %r8b,%cl
    1b26:	40 00 f9             	add    %dil,%cl
    1b29:	44 00 c2             	add    %r8b,%dl
    1b2c:	88 d0                	mov    %dl,%al
    1b2e:	f6 e1                	mul    %cl
    1b30:	88 d1                	mov    %dl,%cl
    1b32:	80 f1 ff             	xor    $0xff,%cl
    1b35:	41 28 d1             	sub    %dl,%r9b
    1b38:	08 c8                	or     %cl,%al
    1b3a:	44 88 ce             	mov    %r9b,%sil
    1b3d:	40 28 ce             	sub    %cl,%sil
    1b40:	41 d2 e9             	shr    %cl,%r9b
    1b43:	40 88 f2             	mov    %sil,%dl
    1b46:	30 c2                	xor    %al,%dl
    1b48:	41 08 f1             	or     %sil,%r9b
    1b4b:	88 d1                	mov    %dl,%cl
    1b4d:	44 88 ce             	mov    %r9b,%sil
    1b50:	40 d2 e6             	shl    %cl,%sil
    1b53:	44 00 ca             	add    %r9b,%dl
    1b56:	40 88 f0             	mov    %sil,%al
    1b59:	f6 e2                	mul    %dl
    1b5b:	40 88 f1             	mov    %sil,%cl
    1b5e:	40 88 d7             	mov    %dl,%dil
    1b61:	40 d2 e7             	shl    %cl,%dil
    1b64:	88 d1                	mov    %dl,%cl
    1b66:	40 d2 ee             	shr    %cl,%sil
    1b69:	40 28 c6             	sub    %al,%sil
    1b6c:	40 f6 e7             	mul    %dil
    1b6f:	88 c2                	mov    %al,%dl
    1b71:	40 80 f7 ff          	xor    $0xff,%dil
    1b75:	88 d1                	mov    %dl,%cl
    1b77:	40 28 f9             	sub    %dil,%cl
    1b7a:	88 d0                	mov    %dl,%al
    1b7c:	40 f6 e6             	mul    %sil
    1b7f:	40 88 c6             	mov    %al,%sil
    1b82:	88 d0                	mov    %dl,%al
    1b84:	40 f6 e7             	mul    %dil
    1b87:	40 d2 ee             	shr    %cl,%sil
    1b8a:	28 c1                	sub    %al,%cl
    1b8c:	40 88 f0             	mov    %sil,%al
    1b8f:	d2 e0                	shl    %cl,%al
    1b91:	40 88 cf             	mov    %cl,%dil
    1b94:	40 08 f7             	or     %sil,%dil
    1b97:	40 00 ce             	add    %cl,%sil
    1b9a:	88 c1                	mov    %al,%cl
    1b9c:	40 88 f2             	mov    %sil,%dl
    1b9f:	d2 e2                	shl    %cl,%dl
    1ba1:	40 30 fe             	xor    %dil,%sil
    1ba4:	40 30 c7             	xor    %al,%dil
    1ba7:	80 f2 ff             	xor    $0xff,%dl
    1baa:	40 88 f1             	mov    %sil,%cl
    1bad:	40 d2 e7             	shl    %cl,%dil
    1bb0:	40 88 f9             	mov    %dil,%cl
    1bb3:	88 d0                	mov    %dl,%al
    1bb5:	d2 e0                	shl    %cl,%al
    1bb7:	40 88 f9             	mov    %dil,%cl
    1bba:	d2 e2                	shl    %cl,%dl
    1bbc:	40 88 c6             	mov    %al,%sil
    1bbf:	40 80 f6 ff          	xor    $0xff,%sil
    1bc3:	41 88 d0             	mov    %dl,%r8b
    1bc6:	41 00 c0             	add    %al,%r8b
    1bc9:	80 f2 ff             	xor    $0xff,%dl
    1bcc:	40 88 f7             	mov    %sil,%dil
    1bcf:	44 28 c7             	sub    %r8b,%dil
    1bd2:	88 d1                	mov    %dl,%cl
    1bd4:	41 d2 e0             	shl    %cl,%r8b
    1bd7:	40 30 f2             	xor    %sil,%dl
    1bda:	88 d1                	mov    %dl,%cl
    1bdc:	40 88 f8             	mov    %dil,%al
    1bdf:	d2 e8                	shr    %cl,%al
    1be1:	44 30 c7             	xor    %r8b,%dil
    1be4:	44 08 c2             	or     %r8b,%dl
    1be7:	40 88 fe             	mov    %dil,%sil
    1bea:	40 08 d6             	or     %dl,%sil
    1bed:	f6 e2                	mul    %dl
    1bef:	88 d1                	mov    %dl,%cl
    1bf1:	40 d2 e7             	shl    %cl,%dil
    1bf4:	40 00 f0             	add    %sil,%al
    1bf7:	40 88 f1             	mov    %sil,%cl
    1bfa:	40 d2 ef             	shr    %cl,%dil
    1bfd:	40 08 c7             	or     %al,%dil
    1c00:	40 80 f7 ff          	xor    $0xff,%dil
    1c04:	40 88 7d ff          	mov    %dil,-0x1(%rbp)
    1c08:	48 8d 45 f5          	lea    -0xb(%rbp),%rax
    1c0c:	48 89 45 d0          	mov    %rax,-0x30(%rbp)
    1c10:	48 8b 45 c0          	mov    -0x40(%rbp),%rax
    1c14:	48 89 45 d8          	mov    %rax,-0x28(%rbp)
    1c18:	48 8b 45 d0          	mov    -0x30(%rbp),%rax
    1c1c:	48 89 45 e0          	mov    %rax,-0x20(%rbp)
    1c20:	48 8b 75 d8          	mov    -0x28(%rbp),%rsi
    1c24:	48 8d 3d 10 04 00 00 	lea    0x410(%rip),%rdi        # 203b <_IO_stdin_used+0x3b>
    1c2b:	b0 00                	mov    $0x0,%al
    1c2d:	e8 fe f3 ff ff       	call   1030 <printf@plt>
    1c32:	48 8b 75 e0          	mov    -0x20(%rbp),%rsi
    1c36:	48 8d 3d fe 03 00 00 	lea    0x3fe(%rip),%rdi        # 203b <_IO_stdin_used+0x3b>
    1c3d:	b0 00                	mov    $0x0,%al
    1c3f:	e8 ec f3 ff ff       	call   1030 <printf@plt>
    1c44:	e8 f7 f4 ff ff       	call   1140 <_Z11str_printerv>
    1c49:	b9 00 00 fe 7f       	mov    $0x7ffe0000,%ecx
    1c4e:	8b 09                	mov    (%rcx),%ecx
    1c50:	c1 e9 08             	shr    $0x8,%ecx
    1c53:	81 e1 ff 00 00 00    	and    $0xff,%ecx
    1c59:	81 c1 00 00 10 00    	add    $0x100000,%ecx
    1c5f:	ba d5 d8 19 9e       	mov    $0x9e19d8d5,%edx
    1c64:	d3 e2                	shl    %cl,%edx
    1c66:	b9 00 00 fe 7f       	mov    $0x7ffe0000,%ecx
    1c6b:	8b 09                	mov    (%rcx),%ecx
    1c6d:	c1 e9 08             	shr    $0x8,%ecx
    1c70:	81 e1 ff 00 00 00    	and    $0xff,%ecx
    1c76:	81 c1 ff ff ff 00    	add    $0xffffff,%ecx
    1c7c:	81 c1 2c a1 52 71    	add    $0x7152a12c,%ecx
    1c82:	89 ce                	mov    %ecx,%esi
    1c84:	09 d6                	or     %edx,%esi
    1c86:	0f af d1             	imul   %ecx,%edx
    1c89:	89 f1                	mov    %esi,%ecx
    1c8b:	0f af ca             	imul   %edx,%ecx
    1c8e:	01 d6                	add    %edx,%esi
    1c90:	89 f2                	mov    %esi,%edx
    1c92:	09 ca                	or     %ecx,%edx
    1c94:	09 f1                	or     %esi,%ecx
    1c96:	01 ca                	add    %ecx,%edx
    1c98:	81 c2 58 34 72 01    	add    $0x1723458,%edx
    1c9e:	89 d1                	mov    %edx,%ecx
    1ca0:	48 8d 3d 94 03 00 00 	lea    0x394(%rip),%rdi        # 203b <_IO_stdin_used+0x3b>
    1ca7:	48 81 c7 54 34 12 00 	add    $0x123454,%rdi
    1cae:	48 83 c7 02          	add    $0x2,%rdi
    1cb2:	48 29 cf             	sub    %rcx,%rdi
    1cb5:	48 89 c6             	mov    %rax,%rsi
    1cb8:	b0 00                	mov    $0x0,%al
    1cba:	e8 71 f3 ff ff       	call   1030 <printf@plt>
    1cbf:	31 c0                	xor    %eax,%eax
    1cc1:	48 83 c4 50          	add    $0x50,%rsp
    1cc5:	5d                   	pop    %rbp
    1cc6:	c3                   	ret

Disassembly of section .fini:

0000000000001cc8 <_fini>:
    1cc8:	f3 0f 1e fa          	endbr64
    1ccc:	48 83 ec 08          	sub    $0x8,%rsp
    1cd0:	48 83 c4 08          	add    $0x8,%rsp
    1cd4:	c3                   	ret
