
./binaries/bin-out-obf.bin:     file format elf64-x86-64


Disassembly of section .init:

0000000000001000 <_init>:
    1000:	f3 0f 1e fa          	endbr64
    1004:	48 83 ec 08          	sub    $0x8,%rsp
    1008:	48 8b 05 c9 2f 00 00 	mov    0x2fc9(%rip),%rax        # 3fd8 <__gmon_start__@Base>
    100f:	48 85 c0             	test   %rax,%rax
    1012:	74 02                	je     1016 <_init+0x16>
    1014:	ff d0                	call   *%rax
    1016:	48 83 c4 08          	add    $0x8,%rsp
    101a:	c3                   	ret

Disassembly of section .plt:

0000000000001020 <printf@plt-0x10>:
    1020:	ff 35 ca 2f 00 00    	push   0x2fca(%rip)        # 3ff0 <_GLOBAL_OFFSET_TABLE_+0x8>
    1026:	ff 25 cc 2f 00 00    	jmp    *0x2fcc(%rip)        # 3ff8 <_GLOBAL_OFFSET_TABLE_+0x10>
    102c:	0f 1f 40 00          	nopl   0x0(%rax)

0000000000001030 <printf@plt>:
    1030:	ff 25 ca 2f 00 00    	jmp    *0x2fca(%rip)        # 4000 <printf@GLIBC_2.2.5>
    1036:	68 00 00 00 00       	push   $0x0
    103b:	e9 e0 ff ff ff       	jmp    1020 <_init+0x20>

Disassembly of section .plt.got:

0000000000001040 <__cxa_finalize@plt>:
    1040:	ff 25 7a 2f 00 00    	jmp    *0x2f7a(%rip)        # 3fc0 <__cxa_finalize@GLIBC_2.2.5>
    1046:	66 90                	xchg   %ax,%ax

Disassembly of section .text:

0000000000001050 <_start>:
    1050:	f3 0f 1e fa          	endbr64
    1054:	31 ed                	xor    %ebp,%ebp
    1056:	49 89 d1             	mov    %rdx,%r9
    1059:	5e                   	pop    %rsi
    105a:	48 89 e2             	mov    %rsp,%rdx
    105d:	48 83 e4 f0          	and    $0xfffffffffffffff0,%rsp
    1061:	50                   	push   %rax
    1062:	54                   	push   %rsp
    1063:	45 31 c0             	xor    %r8d,%r8d
    1066:	31 c9                	xor    %ecx,%ecx
    1068:	48 8d 3d c1 01 00 00 	lea    0x1c1(%rip),%rdi        # 1230 <main>
    106f:	ff 15 53 2f 00 00    	call   *0x2f53(%rip)        # 3fc8 <__libc_start_main@GLIBC_2.34>
    1075:	f4                   	hlt
    1076:	66 2e 0f 1f 84 00 00 	cs nopw 0x0(%rax,%rax,1)
    107d:	00 00 00 

0000000000001080 <deregister_tm_clones>:
    1080:	48 8d 3d 91 2f 00 00 	lea    0x2f91(%rip),%rdi        # 4018 <__TMC_END__>
    1087:	48 8d 05 8a 2f 00 00 	lea    0x2f8a(%rip),%rax        # 4018 <__TMC_END__>
    108e:	48 39 f8             	cmp    %rdi,%rax
    1091:	74 15                	je     10a8 <deregister_tm_clones+0x28>
    1093:	48 8b 05 36 2f 00 00 	mov    0x2f36(%rip),%rax        # 3fd0 <_ITM_deregisterTMCloneTable@Base>
    109a:	48 85 c0             	test   %rax,%rax
    109d:	74 09                	je     10a8 <deregister_tm_clones+0x28>
    109f:	ff e0                	jmp    *%rax
    10a1:	0f 1f 80 00 00 00 00 	nopl   0x0(%rax)
    10a8:	c3                   	ret
    10a9:	0f 1f 80 00 00 00 00 	nopl   0x0(%rax)

00000000000010b0 <register_tm_clones>:
    10b0:	48 8d 3d 61 2f 00 00 	lea    0x2f61(%rip),%rdi        # 4018 <__TMC_END__>
    10b7:	48 8d 35 5a 2f 00 00 	lea    0x2f5a(%rip),%rsi        # 4018 <__TMC_END__>
    10be:	48 29 fe             	sub    %rdi,%rsi
    10c1:	48 89 f0             	mov    %rsi,%rax
    10c4:	48 c1 ee 3f          	shr    $0x3f,%rsi
    10c8:	48 c1 f8 03          	sar    $0x3,%rax
    10cc:	48 01 c6             	add    %rax,%rsi
    10cf:	48 d1 fe             	sar    $1,%rsi
    10d2:	74 14                	je     10e8 <register_tm_clones+0x38>
    10d4:	48 8b 05 05 2f 00 00 	mov    0x2f05(%rip),%rax        # 3fe0 <_ITM_registerTMCloneTable@Base>
    10db:	48 85 c0             	test   %rax,%rax
    10de:	74 08                	je     10e8 <register_tm_clones+0x38>
    10e0:	ff e0                	jmp    *%rax
    10e2:	66 0f 1f 44 00 00    	nopw   0x0(%rax,%rax,1)
    10e8:	c3                   	ret
    10e9:	0f 1f 80 00 00 00 00 	nopl   0x0(%rax)

00000000000010f0 <__do_global_dtors_aux>:
    10f0:	f3 0f 1e fa          	endbr64
    10f4:	80 3d 1d 2f 00 00 00 	cmpb   $0x0,0x2f1d(%rip)        # 4018 <__TMC_END__>
    10fb:	75 2b                	jne    1128 <__do_global_dtors_aux+0x38>
    10fd:	55                   	push   %rbp
    10fe:	48 83 3d ba 2e 00 00 	cmpq   $0x0,0x2eba(%rip)        # 3fc0 <__cxa_finalize@GLIBC_2.2.5>
    1105:	00 
    1106:	48 89 e5             	mov    %rsp,%rbp
    1109:	74 0c                	je     1117 <__do_global_dtors_aux+0x27>
    110b:	48 8b 3d fe 2e 00 00 	mov    0x2efe(%rip),%rdi        # 4010 <__dso_handle>
    1112:	e8 29 ff ff ff       	call   1040 <__cxa_finalize@plt>
    1117:	e8 64 ff ff ff       	call   1080 <deregister_tm_clones>
    111c:	c6 05 f5 2e 00 00 01 	movb   $0x1,0x2ef5(%rip)        # 4018 <__TMC_END__>
    1123:	5d                   	pop    %rbp
    1124:	c3                   	ret
    1125:	0f 1f 00             	nopl   (%rax)
    1128:	c3                   	ret
    1129:	0f 1f 80 00 00 00 00 	nopl   0x0(%rax)

0000000000001130 <frame_dummy>:
    1130:	f3 0f 1e fa          	endbr64
    1134:	e9 77 ff ff ff       	jmp    10b0 <register_tm_clones>
    1139:	0f 1f 80 00 00 00 00 	nopl   0x0(%rax)

0000000000001140 <_Z11str_printerv>:
    1140:	55                   	push   %rbp
    1141:	48 89 e5             	mov    %rsp,%rbp
    1144:	b8 00 00 fe 7f       	mov    $0x7ffe0000,%eax
    1149:	8b 00                	mov    (%rax),%eax
    114b:	c1 e8 08             	shr    $0x8,%eax
    114e:	25 ff 00 00 00       	and    $0xff,%eax
    1153:	05 00 00 10 00       	add    $0x100000,%eax
    1158:	b9 ae 2f c7 ac       	mov    $0xacc72fae,%ecx
    115d:	29 c1                	sub    %eax,%ecx
    115f:	b8 00 00 fe 7f       	mov    $0x7ffe0000,%eax
    1164:	8b 00                	mov    (%rax),%eax
    1166:	c1 e8 08             	shr    $0x8,%eax
    1169:	25 ff 00 00 00       	and    $0xff,%eax
    116e:	05 ff ff ff 00       	add    $0xffffff,%eax
    1173:	ba 0a d1 ad e0       	mov    $0xe0add10a,%edx
    1178:	29 c2                	sub    %eax,%edx
    117a:	89 d0                	mov    %edx,%eax
    117c:	29 c8                	sub    %ecx,%eax
    117e:	31 ca                	xor    %ecx,%edx
    1180:	89 d1                	mov    %edx,%ecx
    1182:	83 f1 ff             	xor    $0xffffffff,%ecx
    1185:	31 c2                	xor    %eax,%edx
    1187:	89 d0                	mov    %edx,%eax
    1189:	29 c8                	sub    %ecx,%eax
    118b:	01 d1                	add    %edx,%ecx
    118d:	29 c1                	sub    %eax,%ecx
    118f:	81 c1 a2 31 48 e6    	add    $0xe64831a2,%ecx
    1195:	89 c8                	mov    %ecx,%eax
    1197:	48 8d 3d 66 0e 00 00 	lea    0xe66(%rip),%rdi        # 2004 <_IO_stdin_used+0x4>
    119e:	48 81 c7 47 34 12 00 	add    $0x123447,%rdi
    11a5:	48 83 c7 0f          	add    $0xf,%rdi
    11a9:	48 29 c7             	sub    %rax,%rdi
    11ac:	b0 00                	mov    $0x0,%al
    11ae:	e8 7d fe ff ff       	call   1030 <printf@plt>
    11b3:	b8 00 00 fe 7f       	mov    $0x7ffe0000,%eax
    11b8:	8b 00                	mov    (%rax),%eax
    11ba:	c1 e8 08             	shr    $0x8,%eax
    11bd:	25 ff 00 00 00       	and    $0xff,%eax
    11c2:	05 00 00 10 00       	add    $0x100000,%eax
    11c7:	0d 88 0d 46 13       	or     $0x13460d88,%eax
    11cc:	b9 00 00 fe 7f       	mov    $0x7ffe0000,%ecx
    11d1:	8b 09                	mov    (%rcx),%ecx
    11d3:	c1 e9 08             	shr    $0x8,%ecx
    11d6:	81 e1 ff 00 00 00    	and    $0xff,%ecx
    11dc:	81 c1 ff ff ff 00    	add    $0xffffff,%ecx
    11e2:	ba a6 bd cf c9       	mov    $0xc9cfbda6,%edx
    11e7:	29 ca                	sub    %ecx,%edx
    11e9:	89 d1                	mov    %edx,%ecx
    11eb:	83 f1 ff             	xor    $0xffffffff,%ecx
    11ee:	29 c2                	sub    %eax,%edx
    11f0:	89 c8                	mov    %ecx,%eax
    11f2:	0f af c2             	imul   %edx,%eax
    11f5:	01 ca                	add    %ecx,%edx
    11f7:	89 c1                	mov    %eax,%ecx
    11f9:	31 d1                	xor    %edx,%ecx
    11fb:	31 d0                	xor    %edx,%eax
    11fd:	09 c1                	or     %eax,%ecx
    11ff:	81 c1 77 b9 6c 63    	add    $0x636cb977,%ecx
    1205:	89 c8                	mov    %ecx,%eax
    1207:	48 8d 3d 13 0e 00 00 	lea    0xe13(%rip),%rdi        # 2021 <_IO_stdin_used+0x21>
    120e:	48 81 c7 4c 34 12 00 	add    $0x12344c,%rdi
    1215:	48 83 c7 0a          	add    $0xa,%rdi
    1219:	48 29 c7             	sub    %rax,%rdi
    121c:	e8 5f 01 00 00       	call   1380 <_ZL8_obf_strPKc>
    1221:	5d                   	pop    %rbp
    1222:	c3                   	ret
    1223:	66 66 66 66 2e 0f 1f 	data16 data16 data16 cs nopw 0x0(%rax,%rax,1)
    122a:	84 00 00 00 00 00 

0000000000001230 <main>:
    1230:	55                   	push   %rbp
    1231:	48 89 e5             	mov    %rsp,%rbp
    1234:	48 83 ec 30          	sub    $0x30,%rsp
    1238:	c7 45 d0 2c 01 00 00 	movl   $0x12c,-0x30(%rbp)
    123f:	48 8d 3d f5 0d 00 00 	lea    0xdf5(%rip),%rdi        # 203b <_IO_stdin_used+0x3b>
    1246:	48 81 c7 50 34 12 00 	add    $0x123450,%rdi
    124d:	48 83 c7 06          	add    $0x6,%rdi
    1251:	48 81 ef 56 34 12 00 	sub    $0x123456,%rdi
    1258:	e8 23 01 00 00       	call   1380 <_ZL8_obf_strPKc>
    125d:	48 89 45 d8          	mov    %rax,-0x28(%rbp)
    1261:	c7 45 e0 90 5f 01 00 	movl   $0x15f90,-0x20(%rbp)
    1268:	b8 00 00 fe 7f       	mov    $0x7ffe0000,%eax
    126d:	8b 08                	mov    (%rax),%ecx
    126f:	c1 e9 08             	shr    $0x8,%ecx
    1272:	81 e1 ff 00 00 00    	and    $0xff,%ecx
    1278:	81 c1 00 00 10 00    	add    $0x100000,%ecx
    127e:	b8 f4 62 ee 3c       	mov    $0x3cee62f4,%eax
    1283:	d3 e0                	shl    %cl,%eax
    1285:	89 c1                	mov    %eax,%ecx
    1287:	83 c1 00             	add    $0x0,%ecx
    128a:	83 c8 00             	or     $0x0,%eax
    128d:	89 ca                	mov    %ecx,%edx
    128f:	01 c2                	add    %eax,%edx
    1291:	d3 e0                	shl    %cl,%eax
    1293:	29 c2                	sub    %eax,%edx
    1295:	83 f0 ff             	xor    $0xffffffff,%eax
    1298:	29 d0                	sub    %edx,%eax
    129a:	05 3f fa ee 79       	add    $0x79eefa3f,%eax
    129f:	89 c0                	mov    %eax,%eax
    12a1:	48 8d 3d 9d 0d 00 00 	lea    0xd9d(%rip),%rdi        # 2045 <_IO_stdin_used+0x45>
    12a8:	48 81 c7 4e 34 12 00 	add    $0x12344e,%rdi
    12af:	48 83 c7 08          	add    $0x8,%rdi
    12b3:	48 29 c7             	sub    %rax,%rdi
    12b6:	e8 c5 00 00 00       	call   1380 <_ZL8_obf_strPKc>
    12bb:	48 89 45 e8          	mov    %rax,-0x18(%rbp)
    12bf:	48 8b 45 d8          	mov    -0x28(%rbp),%rax
    12c3:	48 89 45 f0          	mov    %rax,-0x10(%rbp)
    12c7:	48 8b 45 e8          	mov    -0x18(%rbp),%rax
    12cb:	48 89 45 f8          	mov    %rax,-0x8(%rbp)
    12cf:	48 8b 75 f0          	mov    -0x10(%rbp),%rsi
    12d3:	48 8d 3d 76 0d 00 00 	lea    0xd76(%rip),%rdi        # 2050 <_IO_stdin_used+0x50>
    12da:	b0 00                	mov    $0x0,%al
    12dc:	e8 4f fd ff ff       	call   1030 <printf@plt>
    12e1:	48 8b 75 f8          	mov    -0x8(%rbp),%rsi
    12e5:	48 8d 3d 64 0d 00 00 	lea    0xd64(%rip),%rdi        # 2050 <_IO_stdin_used+0x50>
    12ec:	b0 00                	mov    $0x0,%al
    12ee:	e8 3d fd ff ff       	call   1030 <printf@plt>
    12f3:	e8 48 fe ff ff       	call   1140 <_Z11str_printerv>
    12f8:	b9 00 00 fe 7f       	mov    $0x7ffe0000,%ecx
    12fd:	8b 09                	mov    (%rcx),%ecx
    12ff:	c1 e9 08             	shr    $0x8,%ecx
    1302:	81 e1 ff 00 00 00    	and    $0xff,%ecx
    1308:	81 c1 00 00 10 00    	add    $0x100000,%ecx
    130e:	69 c9 d6 e6 d5 c4    	imul   $0xc4d5e6d6,%ecx,%ecx
    1314:	ba 00 00 fe 7f       	mov    $0x7ffe0000,%edx
    1319:	8b 32                	mov    (%rdx),%esi
    131b:	c1 ee 08             	shr    $0x8,%esi
    131e:	81 e6 ff 00 00 00    	and    $0xff,%esi
    1324:	81 c6 ff ff ff 00    	add    $0xffffff,%esi
    132a:	81 f6 32 ca a5 e6    	xor    $0xe6a5ca32,%esi
    1330:	89 f2                	mov    %esi,%edx
    1332:	29 ca                	sub    %ecx,%edx
    1334:	09 ce                	or     %ecx,%esi
    1336:	89 d1                	mov    %edx,%ecx
    1338:	89 f7                	mov    %esi,%edi
    133a:	d3 e7                	shl    %cl,%edi
    133c:	09 f2                	or     %esi,%edx
    133e:	09 d7                	or     %edx,%edi
    1340:	83 f7 ff             	xor    $0xffffffff,%edi
    1343:	81 c7 24 ea 0d 00    	add    $0xdea24,%edi
    1349:	89 f9                	mov    %edi,%ecx
    134b:	48 8d 3d fe 0c 00 00 	lea    0xcfe(%rip),%rdi        # 2050 <_IO_stdin_used+0x50>
    1352:	48 81 c7 54 34 12 00 	add    $0x123454,%rdi
    1359:	48 83 c7 02          	add    $0x2,%rdi
    135d:	48 29 cf             	sub    %rcx,%rdi
    1360:	48 89 c6             	mov    %rax,%rsi
    1363:	b0 00                	mov    $0x0,%al
    1365:	e8 c6 fc ff ff       	call   1030 <printf@plt>
    136a:	31 c0                	xor    %eax,%eax
    136c:	48 83 c4 30          	add    $0x30,%rsp
    1370:	5d                   	pop    %rbp
    1371:	c3                   	ret

Disassembly of section ._obf_str:

0000000000001380 <_ZL8_obf_strPKc>:
    1380:	55                   	push   %rbp
    1381:	48 89 e5             	mov    %rsp,%rbp
    1384:	48 89 7d f8          	mov    %rdi,-0x8(%rbp)
    1388:	48 8b 45 f8          	mov    -0x8(%rbp),%rax
    138c:	5d                   	pop    %rbp
    138d:	c3                   	ret

Disassembly of section .fini:

0000000000001390 <_fini>:
    1390:	f3 0f 1e fa          	endbr64
    1394:	48 83 ec 08          	sub    $0x8,%rsp
    1398:	48 83 c4 08          	add    $0x8,%rsp
    139c:	c3                   	ret
